

Microchip MPLAB XC8 Assembler V2.40 build 20220703182018 
                                                                                                           Thu Dec 15 12:10:38 2022


     1                           	processor	18F87K22
     2                           	pagewidth 132
     3                           	psect	udata_acs,global,class=COMRAM,space=1,delta=1,lowdata,noexec
     4                           	psect	udata_bank0,global,class=BANK0,space=1,delta=1,lowdata,noexec
     5                           	psect	udata_bank1,global,class=BANK1,space=1,delta=1,lowdata,noexec
     6                           	psect	udata_bank2,global,class=BANK2,space=1,delta=1,lowdata,noexec
     7                           	psect	udata_bank3,global,class=BANK3,space=1,delta=1,lowdata,noexec
     8                           	psect	udata_bank4,global,class=BANK4,space=1,delta=1,lowdata,noexec
     9                           	psect	udata_bank5,global,class=BANK5,space=1,delta=1,lowdata,noexec
    10                           	psect	udata_bank6,global,class=BANK6,space=1,delta=1,lowdata,noexec
    11                           	psect	udata_bank7,global,class=BANK7,space=1,delta=1,lowdata,noexec
    12                           	psect	udata_bank8,global,class=BANK8,space=1,delta=1,lowdata,noexec
    13                           	psect	udata_bank9,global,class=BANK9,space=1,delta=1,lowdata,noexec
    14                           	psect	udata_bank10,global,class=BANK10,space=1,delta=1,lowdata,noexec
    15                           	psect	udata_bank11,global,class=BANK11,space=1,delta=1,lowdata,noexec
    16                           	psect	udata_bank12,global,class=BANK12,space=1,delta=1,lowdata,noexec
    17                           	psect	udata_bank13,global,class=BANK13,space=1,delta=1,lowdata,noexec
    18                           	psect	udata_bank14,global,class=BANK14,space=1,delta=1,lowdata,noexec
    19                           	psect	udata_bank15,global,class=BANK15,space=1,delta=1,lowdata,noexec
    20                           	psect	udata,global,class=RAM,space=1,delta=1,noexec
    21                           	psect	code,global,reloc=2,class=CODE,delta=1
    22                           	psect	data,global,reloc=2,class=CONST,delta=1,noexec
    23                           	psect	edata,global,class=EEDATA,space=3,delta=2,noexec
    24                           	psect	display_code,global,class=CODE,delta=1
    25   000000                     
    26                           	psect	udata_acs
    27   000036                     counter_display:
    28   000036                     	ds	1
    29                           
    30                           	psect	edata
    31   000000                     stk_offset	set	0
    32   000000                     auto_size	set	0
    33                           
    34                           ; stack_auto defines a symbol /name/_offset which equates to the
    35                           ; stack offset of the auto object in question
    36   000000                     
    37                           ; stack_param defines a symbol /name/_offset which equates to the
    38                           ; stack offset of the parameter object in question
    39   000000                     
    40                           ; alloc_stack adjusts the SP to allocate space for auto objects
    41                           ; it also links in to the btemp symbol so that can be used
    42   000000                     
    43                           ; restore_stack adjusts the SP to remove all auto and parameter
    44                           ; objects from the stack prior to returning from a function
    45   000000                     
    46                           	psect	display_code
    47   01E45C                     display:
    48                           	callstack 0
    49   01E45C  9C7F               	bcf	127,6,c	; point to Flash program memory
    50   01E45E  8E7F               	bsf	127,7,c	; access Flash program memory
    51   01E460  ECC6  F0F3         	call	circle_1
    52   01E464  ECD1  F0F3         	call	circle_2
    53   01E468  EC4A  F0F2         	call	check_style
    54   01E46C  EC5B  F0F2         	call	check_second
    55   01E470  ECD4  F0F2         	call	check_minute
    56   01E474  EC4D  F0F3         	call	check_hour
    57   01E478  0012               	return	
    58   01E47A  C025  FF86         	movff	alarm_set,3974
    59   01E47E                     sound_alarm:
    60                           	callstack 0
    61   01E47E  0E01               	movlw	low (alarm_table shr (0+16))	; address of data in PM
    62   01E480  6EF8               	movwf	tblptru,c	; load upper bits to TBLPTRU
    63   01E482  0ECD               	movlw	high alarm_table	; address of data in PM
    64   01E484  6EF7               	movwf	tblptrh,c	; load high byte to TBLPTRH
    65   01E486  0EB0               	movlw	low alarm_table	; address of data in PM
    66   01E488  6EF6               	movwf	tblptrl,c
    67   01E48A  0EFE               	movlw	254
    68   01E48C  6F36               	movwf	counter_display,b
    69   01E48E  ECC3  F0FB         	call	loop_alarm
    70   01E492  0012               	return	
    71   01E494                     check_style:
    72   01E494  EC4F  F0F2         	call	check_style_1
    73   01E498  EC55  F0F2         	call	check_style_2
    74   01E49C  0012               	return	
    75   01E49E                     check_style_1:
    76   01E49E  0E01               	movlw	1
    77   01E4A0  6316               	cpfseq	style_number,b
    78   01E4A2  0012               	return	
    79   01E4A4  ECDC  F0F3         	call	style_1
    80   01E4A8  0012               	return	
    81   01E4AA                     check_style_2:
    82   01E4AA  0E02               	movlw	2
    83   01E4AC  6316               	cpfseq	style_number,b
    84   01E4AE  0012               	return	
    85   01E4B0  ECE5  F0F3         	call	style_2
    86   01E4B4  0012               	return	
    87   01E4B6                     check_second:
    88   01E4B6  ECC8  F0FB         	call	check_second0
    89   01E4BA  ECCE  F0FB         	call	check_second1
    90   01E4BE  ECD4  F0FB         	call	check_second2
    91   01E4C2  ECDA  F0FB         	call	check_second3
    92   01E4C6  ECE0  F0FB         	call	check_second4
    93   01E4CA  ECE6  F0FB         	call	check_second5
    94   01E4CE  ECEC  F0FB         	call	check_second6
    95   01E4D2  ECF2  F0FB         	call	check_second7
    96   01E4D6  ECF8  F0FB         	call	check_second8
    97   01E4DA  ECFE  F0FB         	call	check_second9
    98   01E4DE  EC04  F0FC         	call	check_second10
    99   01E4E2  EC0A  F0FC         	call	check_second11
   100   01E4E6  EC10  F0FC         	call	check_second12
   101   01E4EA  EC16  F0FC         	call	check_second13
   102   01E4EE  EC1C  F0FC         	call	check_second14
   103   01E4F2  EC22  F0FC         	call	check_second15
   104   01E4F6  EC28  F0FC         	call	check_second16
   105   01E4FA  EC2E  F0FC         	call	check_second17
   106   01E4FE  EC34  F0FC         	call	check_second18
   107   01E502  EC3A  F0FC         	call	check_second19
   108   01E506  EC40  F0FC         	call	check_second20
   109   01E50A  EC46  F0FC         	call	check_second21
   110   01E50E  EC4C  F0FC         	call	check_second22
   111   01E512  EC52  F0FC         	call	check_second23
   112   01E516  EC58  F0FC         	call	check_second24
   113   01E51A  EC5E  F0FC         	call	check_second25
   114   01E51E  EC64  F0FC         	call	check_second26
   115   01E522  EC6A  F0FC         	call	check_second27
   116   01E526  EC70  F0FC         	call	check_second28
   117   01E52A  EC76  F0FC         	call	check_second29
   118   01E52E  EC7C  F0FC         	call	check_second30
   119   01E532  EC82  F0FC         	call	check_second31
   120   01E536  EC88  F0FC         	call	check_second32
   121   01E53A  EC8E  F0FC         	call	check_second33
   122   01E53E  EC94  F0FC         	call	check_second34
   123   01E542  EC9A  F0FC         	call	check_second35
   124   01E546  ECA0  F0FC         	call	check_second36
   125   01E54A  ECA6  F0FC         	call	check_second37
   126   01E54E  ECAC  F0FC         	call	check_second38
   127   01E552  ECB2  F0FC         	call	check_second39
   128   01E556  ECB8  F0FC         	call	check_second40
   129   01E55A  ECBE  F0FC         	call	check_second41
   130   01E55E  ECC4  F0FC         	call	check_second42
   131   01E562  ECCA  F0FC         	call	check_second43
   132   01E566  ECD0  F0FC         	call	check_second44
   133   01E56A  ECD6  F0FC         	call	check_second45
   134   01E56E  ECDC  F0FC         	call	check_second46
   135   01E572  ECE2  F0FC         	call	check_second47
   136   01E576  ECE8  F0FC         	call	check_second48
   137   01E57A  ECEE  F0FC         	call	check_second49
   138   01E57E  ECF4  F0FC         	call	check_second50
   139   01E582  ECFA  F0FC         	call	check_second51
   140   01E586  EC00  F0FD         	call	check_second52
   141   01E58A  EC06  F0FD         	call	check_second53
   142   01E58E  EC0C  F0FD         	call	check_second54
   143   01E592  EC12  F0FD         	call	check_second55
   144   01E596  EC18  F0FD         	call	check_second56
   145   01E59A  EC1E  F0FD         	call	check_second57
   146   01E59E  EC24  F0FD         	call	check_second58
   147   01E5A2  EC2A  F0FD         	call	check_second59
   148   01E5A6  0012               	return	
   149   01E5A8                     check_minute:
   150   01E5A8  EC30  F0FD         	call	check_minute0
   151   01E5AC  EC36  F0FD         	call	check_minute1
   152   01E5B0  EC3C  F0FD         	call	check_minute2
   153   01E5B4  EC42  F0FD         	call	check_minute3
   154   01E5B8  EC48  F0FD         	call	check_minute4
   155   01E5BC  EC4E  F0FD         	call	check_minute5
   156   01E5C0  EC54  F0FD         	call	check_minute6
   157   01E5C4  EC5A  F0FD         	call	check_minute7
   158   01E5C8  EC60  F0FD         	call	check_minute8
   159   01E5CC  EC66  F0FD         	call	check_minute9
   160   01E5D0  EC6C  F0FD         	call	check_minute10
   161   01E5D4  EC72  F0FD         	call	check_minute11
   162   01E5D8  EC78  F0FD         	call	check_minute12
   163   01E5DC  EC7E  F0FD         	call	check_minute13
   164   01E5E0  EC84  F0FD         	call	check_minute14
   165   01E5E4  EC8A  F0FD         	call	check_minute15
   166   01E5E8  EC90  F0FD         	call	check_minute16
   167   01E5EC  EC96  F0FD         	call	check_minute17
   168   01E5F0  EC9C  F0FD         	call	check_minute18
   169   01E5F4  ECA2  F0FD         	call	check_minute19
   170   01E5F8  ECA8  F0FD         	call	check_minute20
   171   01E5FC  ECAE  F0FD         	call	check_minute21
   172   01E600  ECB4  F0FD         	call	check_minute22
   173   01E604  ECBA  F0FD         	call	check_minute23
   174   01E608  ECC0  F0FD         	call	check_minute24
   175   01E60C  ECC6  F0FD         	call	check_minute25
   176   01E610  ECCC  F0FD         	call	check_minute26
   177   01E614  ECD2  F0FD         	call	check_minute27
   178   01E618  ECD8  F0FD         	call	check_minute28
   179   01E61C  ECDE  F0FD         	call	check_minute29
   180   01E620  ECE4  F0FD         	call	check_minute30
   181   01E624  ECEA  F0FD         	call	check_minute31
   182   01E628  ECF0  F0FD         	call	check_minute32
   183   01E62C  ECF6  F0FD         	call	check_minute33
   184   01E630  ECFC  F0FD         	call	check_minute34
   185   01E634  EC02  F0FE         	call	check_minute35
   186   01E638  EC08  F0FE         	call	check_minute36
   187   01E63C  EC0E  F0FE         	call	check_minute37
   188   01E640  EC14  F0FE         	call	check_minute38
   189   01E644  EC1A  F0FE         	call	check_minute39
   190   01E648  EC20  F0FE         	call	check_minute40
   191   01E64C  EC26  F0FE         	call	check_minute41
   192   01E650  EC2C  F0FE         	call	check_minute42
   193   01E654  EC32  F0FE         	call	check_minute43
   194   01E658  EC38  F0FE         	call	check_minute44
   195   01E65C  EC3E  F0FE         	call	check_minute45
   196   01E660  EC44  F0FE         	call	check_minute46
   197   01E664  EC4A  F0FE         	call	check_minute47
   198   01E668  EC50  F0FE         	call	check_minute48
   199   01E66C  EC56  F0FE         	call	check_minute49
   200   01E670  EC5C  F0FE         	call	check_minute50
   201   01E674  EC62  F0FE         	call	check_minute51
   202   01E678  EC68  F0FE         	call	check_minute52
   203   01E67C  EC6E  F0FE         	call	check_minute53
   204   01E680  EC74  F0FE         	call	check_minute54
   205   01E684  EC7A  F0FE         	call	check_minute55
   206   01E688  EC80  F0FE         	call	check_minute56
   207   01E68C  EC86  F0FE         	call	check_minute57
   208   01E690  EC8C  F0FE         	call	check_minute58
   209   01E694  EC92  F0FE         	call	check_minute59
   210   01E698  0012               	return	
   211   01E69A                     check_hour:
   212   01E69A  EC98  F0FE         	call	check_hour0
   213   01E69E  EC9E  F0FE         	call	check_hour1
   214   01E6A2  ECA4  F0FE         	call	check_hour2
   215   01E6A6  ECAA  F0FE         	call	check_hour3
   216   01E6AA  ECB0  F0FE         	call	check_hour4
   217   01E6AE  ECB6  F0FE         	call	check_hour5
   218   01E6B2  ECBC  F0FE         	call	check_hour6
   219   01E6B6  ECC2  F0FE         	call	check_hour7
   220   01E6BA  ECC8  F0FE         	call	check_hour8
   221   01E6BE  ECCE  F0FE         	call	check_hour9
   222   01E6C2  ECD4  F0FE         	call	check_hour10
   223   01E6C6  ECDA  F0FE         	call	check_hour11
   224   01E6CA  ECE0  F0FE         	call	check_hour12
   225   01E6CE  ECE6  F0FE         	call	check_hour13
   226   01E6D2  ECEC  F0FE         	call	check_hour14
   227   01E6D6  ECF2  F0FE         	call	check_hour15
   228   01E6DA  ECF8  F0FE         	call	check_hour16
   229   01E6DE  ECFE  F0FE         	call	check_hour17
   230   01E6E2  EC04  F0FF         	call	check_hour18
   231   01E6E6  EC0A  F0FF         	call	check_hour19
   232   01E6EA  EC10  F0FF         	call	check_hour20
   233   01E6EE  EC16  F0FF         	call	check_hour21
   234   01E6F2  EC1C  F0FF         	call	check_hour22
   235   01E6F6  EC22  F0FF         	call	check_hour23
   236   01E6FA  EC28  F0FF         	call	check_hour24
   237   01E6FE  EC2E  F0FF         	call	check_hour25
   238   01E702  EC34  F0FF         	call	check_hour26
   239   01E706  EC3A  F0FF         	call	check_hour27
   240   01E70A  EC40  F0FF         	call	check_hour28
   241   01E70E  EC46  F0FF         	call	check_hour29
   242   01E712  EC4C  F0FF         	call	check_hour30
   243   01E716  EC52  F0FF         	call	check_hour31
   244   01E71A  EC58  F0FF         	call	check_hour32
   245   01E71E  EC5E  F0FF         	call	check_hour33
   246   01E722  EC64  F0FF         	call	check_hour34
   247   01E726  EC6A  F0FF         	call	check_hour35
   248   01E72A  EC70  F0FF         	call	check_hour36
   249   01E72E  EC76  F0FF         	call	check_hour37
   250   01E732  EC7C  F0FF         	call	check_hour38
   251   01E736  EC82  F0FF         	call	check_hour39
   252   01E73A  EC88  F0FF         	call	check_hour40
   253   01E73E  EC8E  F0FF         	call	check_hour41
   254   01E742  EC94  F0FF         	call	check_hour42
   255   01E746  EC9A  F0FF         	call	check_hour43
   256   01E74A  ECA0  F0FF         	call	check_hour44
   257   01E74E  ECA6  F0FF         	call	check_hour45
   258   01E752  ECAC  F0FF         	call	check_hour46
   259   01E756  ECB2  F0FF         	call	check_hour47
   260   01E75A  ECB8  F0FF         	call	check_hour48
   261   01E75E  ECBE  F0FF         	call	check_hour49
   262   01E762  ECC4  F0FF         	call	check_hour50
   263   01E766  ECCA  F0FF         	call	check_hour51
   264   01E76A  ECD0  F0FF         	call	check_hour52
   265   01E76E  ECD6  F0FF         	call	check_hour53
   266   01E772  ECDC  F0FF         	call	check_hour54
   267   01E776  ECE2  F0FF         	call	check_hour55
   268   01E77A  ECE8  F0FF         	call	check_hour56
   269   01E77E  ECEE  F0FF         	call	check_hour57
   270   01E782  ECF4  F0FF         	call	check_hour58
   271   01E786  ECFA  F0FF         	call	check_hour59
   272   01E78A  0012               	return	
   273   01E78C                     circle_1:
   274   01E78C  0E01               	movlw	low (clock_circle_1 shr (0+16))	; address of data in PM
   275   01E78E  6EF8               	movwf	tblptru,c	; load upper bits to TBLPTRU
   276   01E790  0ECB               	movlw	high clock_circle_1	; address of data in PM
   277   01E792  6EF7               	movwf	tblptrh,c	; load high byte to TBLPTRH
   278   01E794  0E4A               	movlw	low clock_circle_1	; address of data in PM
   279   01E796  6EF6               	movwf	tblptrl,c
   280   01E798  0EFE               	movlw	254
   281   01E79A  6F36               	movwf	counter_display,b
   282                           
   283                           ; movlw 0x01
   284                           ; call loop_delay
   285   01E79C  ECAD  F0FB         	call	loop
   286   01E7A0  0012               	return	
   287   01E7A2                     circle_2:
   288   01E7A2  0E01               	movlw	low (clock_circle_2 shr (0+16))	; address of data in PM
   289   01E7A4  6EF8               	movwf	tblptru,c	; load upper bits to TBLPTRU
   290   01E7A6  0ECC               	movlw	high clock_circle_2	; address of data in PM
   291   01E7A8  6EF7               	movwf	tblptrh,c	; load high byte to TBLPTRH
   292   01E7AA  0E48               	movlw	low clock_circle_2	; address of data in PM
   293   01E7AC  6EF6               	movwf	tblptrl,c
   294   01E7AE  0EFE               	movlw	254
   295   01E7B0  6F36               	movwf	counter_display,b
   296                           
   297                           ; movlw 0x01
   298                           ; call loop_delay
   299   01E7B2  ECAD  F0FB         	call	loop
   300   01E7B6  0012               	return	
   301   01E7B8                     style_1:
   302   01E7B8  0E01               	movlw	low (clock_style_1 shr (0+16))	; address of data in PM
   303   01E7BA  6EF8               	movwf	tblptru,c	; load upper bits to TBLPTRU
   304   01E7BC  0ECD               	movlw	high clock_style_1	; address of data in PM
   305   01E7BE  6EF7               	movwf	tblptrh,c	; load high byte to TBLPTRH
   306   01E7C0  0E46               	movlw	low clock_style_1	; address of data in PM
   307   01E7C2  6EF6               	movwf	tblptrl,c
   308   01E7C4  C010  F036         	movff	len_style_1,counter_display
   309   01E7C8  0012               	return	
   310   01E7CA                     style_2:
   311   01E7CA  0E01               	movlw	low (clock_style_2 shr (0+16))	; address of data in PM
   312   01E7CC  6EF8               	movwf	tblptru,c	; load upper bits to TBLPTRU
   313   01E7CE  0ECD               	movlw	high clock_style_2	; address of data in PM
   314   01E7D0  6EF7               	movwf	tblptrh,c	; load high byte to TBLPTRH
   315   01E7D2  0E48               	movlw	low clock_style_2	; address of data in PM
   316   01E7D4  6EF6               	movwf	tblptrl,c
   317   01E7D6  C011  F036         	movff	len_style_2,counter_display
   318   01E7DA  0E01               	movlw	1
   319   01E7DC  ECB7  F0FB         	call	loop_delay
   320   01E7E0  0012               	return	
   321   01E7E2                     display_second0:
   322   01E7E2  0E01               	movlw	low (hand0 shr (0+16))
   323   01E7E4  6EF8               	movwf	tblptru,c
   324   01E7E6  0ECE               	movlw	high hand0
   325   01E7E8  6EF7               	movwf	tblptrh,c
   326   01E7EA  0EAE               	movlw	low hand0
   327   01E7EC  6EF6               	movwf	tblptrl,c
   328   01E7EE  C015  F036         	movff	len_second,counter_display
   329   01E7F2  ECAD  F0FB         	call	loop
   330   01E7F6  0012               	return	
   331   01E7F8                     display_second1:
   332   01E7F8  0E01               	movlw	low (hand1 shr (0+16))
   333   01E7FA  6EF8               	movwf	tblptru,c
   334   01E7FC  0ECF               	movlw	high hand1
   335   01E7FE  6EF7               	movwf	tblptrh,c
   336   01E800  0E0A               	movlw	low hand1
   337   01E802  6EF6               	movwf	tblptrl,c
   338   01E804  C015  F036         	movff	len_second,counter_display
   339   01E808  ECAD  F0FB         	call	loop
   340   01E80C  0012               	return	
   341   01E80E                     display_second2:
   342   01E80E  0E01               	movlw	low (hand2 shr (0+16))
   343   01E810  6EF8               	movwf	tblptru,c
   344   01E812  0ECF               	movlw	high hand2
   345   01E814  6EF7               	movwf	tblptrh,c
   346   01E816  0E66               	movlw	low hand2
   347   01E818  6EF6               	movwf	tblptrl,c
   348   01E81A  C015  F036         	movff	len_second,counter_display
   349   01E81E  ECAD  F0FB         	call	loop
   350   01E822  0012               	return	
   351   01E824                     display_second3:
   352   01E824  0E01               	movlw	low (hand3 shr (0+16))
   353   01E826  6EF8               	movwf	tblptru,c
   354   01E828  0ECF               	movlw	high hand3
   355   01E82A  6EF7               	movwf	tblptrh,c
   356   01E82C  0EC2               	movlw	low hand3
   357   01E82E  6EF6               	movwf	tblptrl,c
   358   01E830  C015  F036         	movff	len_second,counter_display
   359   01E834  ECAD  F0FB         	call	loop
   360   01E838  0012               	return	
   361   01E83A                     display_second4:
   362   01E83A  0E01               	movlw	low (hand4 shr (0+16))
   363   01E83C  6EF8               	movwf	tblptru,c
   364   01E83E  0ED0               	movlw	high hand4
   365   01E840  6EF7               	movwf	tblptrh,c
   366   01E842  0E1E               	movlw	low hand4
   367   01E844  6EF6               	movwf	tblptrl,c
   368   01E846  C015  F036         	movff	len_second,counter_display
   369   01E84A  ECAD  F0FB         	call	loop
   370   01E84E  0012               	return	
   371   01E850                     display_second5:
   372   01E850  0E01               	movlw	low (hand5 shr (0+16))
   373   01E852  6EF8               	movwf	tblptru,c
   374   01E854  0ED0               	movlw	high hand5
   375   01E856  6EF7               	movwf	tblptrh,c
   376   01E858  0E7A               	movlw	low hand5
   377   01E85A  6EF6               	movwf	tblptrl,c
   378   01E85C  C015  F036         	movff	len_second,counter_display
   379   01E860  ECAD  F0FB         	call	loop
   380   01E864  0012               	return	
   381   01E866                     display_second6:
   382   01E866  0E01               	movlw	low (hand6 shr (0+16))
   383   01E868  6EF8               	movwf	tblptru,c
   384   01E86A  0ED0               	movlw	high hand6
   385   01E86C  6EF7               	movwf	tblptrh,c
   386   01E86E  0ED6               	movlw	low hand6
   387   01E870  6EF6               	movwf	tblptrl,c
   388   01E872  C015  F036         	movff	len_second,counter_display
   389   01E876  ECAD  F0FB         	call	loop
   390   01E87A  0012               	return	
   391   01E87C                     display_second7:
   392   01E87C  0E01               	movlw	low (hand7 shr (0+16))
   393   01E87E  6EF8               	movwf	tblptru,c
   394   01E880  0ED1               	movlw	high hand7
   395   01E882  6EF7               	movwf	tblptrh,c
   396   01E884  0E32               	movlw	low hand7
   397   01E886  6EF6               	movwf	tblptrl,c
   398   01E888  C015  F036         	movff	len_second,counter_display
   399   01E88C  ECAD  F0FB         	call	loop
   400   01E890  0012               	return	
   401   01E892                     display_second8:
   402   01E892  0E01               	movlw	low (hand8 shr (0+16))
   403   01E894  6EF8               	movwf	tblptru,c
   404   01E896  0ED1               	movlw	high hand8
   405   01E898  6EF7               	movwf	tblptrh,c
   406   01E89A  0E8E               	movlw	low hand8
   407   01E89C  6EF6               	movwf	tblptrl,c
   408   01E89E  C015  F036         	movff	len_second,counter_display
   409   01E8A2  ECAD  F0FB         	call	loop
   410   01E8A6  0012               	return	
   411   01E8A8                     display_second9:
   412   01E8A8  0E01               	movlw	low (hand9 shr (0+16))
   413   01E8AA  6EF8               	movwf	tblptru,c
   414   01E8AC  0ED1               	movlw	high hand9
   415   01E8AE  6EF7               	movwf	tblptrh,c
   416   01E8B0  0EEA               	movlw	low hand9
   417   01E8B2  6EF6               	movwf	tblptrl,c
   418   01E8B4  C015  F036         	movff	len_second,counter_display
   419   01E8B8  ECAD  F0FB         	call	loop
   420   01E8BC  0012               	return	
   421   01E8BE                     display_second10:
   422   01E8BE  0E01               	movlw	low (hand10 shr (0+16))
   423   01E8C0  6EF8               	movwf	tblptru,c
   424   01E8C2  0ED2               	movlw	high hand10
   425   01E8C4  6EF7               	movwf	tblptrh,c
   426   01E8C6  0E46               	movlw	low hand10
   427   01E8C8  6EF6               	movwf	tblptrl,c
   428   01E8CA  C015  F036         	movff	len_second,counter_display
   429   01E8CE  ECAD  F0FB         	call	loop
   430   01E8D2  0012               	return	
   431   01E8D4                     display_second11:
   432   01E8D4  0E01               	movlw	low (hand11 shr (0+16))
   433   01E8D6  6EF8               	movwf	tblptru,c
   434   01E8D8  0ED2               	movlw	high hand11
   435   01E8DA  6EF7               	movwf	tblptrh,c
   436   01E8DC  0EA2               	movlw	low hand11
   437   01E8DE  6EF6               	movwf	tblptrl,c
   438   01E8E0  C015  F036         	movff	len_second,counter_display
   439   01E8E4  ECAD  F0FB         	call	loop
   440   01E8E8  0012               	return	
   441   01E8EA                     display_second12:
   442   01E8EA  0E01               	movlw	low (hand12 shr (0+16))
   443   01E8EC  6EF8               	movwf	tblptru,c
   444   01E8EE  0ED2               	movlw	high hand12
   445   01E8F0  6EF7               	movwf	tblptrh,c
   446   01E8F2  0EFE               	movlw	low hand12
   447   01E8F4  6EF6               	movwf	tblptrl,c
   448   01E8F6  C015  F036         	movff	len_second,counter_display
   449   01E8FA  ECAD  F0FB         	call	loop
   450   01E8FE  0012               	return	
   451   01E900                     display_second13:
   452   01E900  0E01               	movlw	low (hand13 shr (0+16))
   453   01E902  6EF8               	movwf	tblptru,c
   454   01E904  0ED3               	movlw	high hand13
   455   01E906  6EF7               	movwf	tblptrh,c
   456   01E908  0E5A               	movlw	low hand13
   457   01E90A  6EF6               	movwf	tblptrl,c
   458   01E90C  C015  F036         	movff	len_second,counter_display
   459   01E910  ECAD  F0FB         	call	loop
   460   01E914  0012               	return	
   461   01E916                     display_second14:
   462   01E916  0E01               	movlw	low (hand14 shr (0+16))
   463   01E918  6EF8               	movwf	tblptru,c
   464   01E91A  0ED3               	movlw	high hand14
   465   01E91C  6EF7               	movwf	tblptrh,c
   466   01E91E  0EB6               	movlw	low hand14
   467   01E920  6EF6               	movwf	tblptrl,c
   468   01E922  C015  F036         	movff	len_second,counter_display
   469   01E926  ECAD  F0FB         	call	loop
   470   01E92A  0012               	return	
   471   01E92C                     display_second15:
   472   01E92C  0E01               	movlw	low (hand15 shr (0+16))
   473   01E92E  6EF8               	movwf	tblptru,c
   474   01E930  0ED4               	movlw	high hand15
   475   01E932  6EF7               	movwf	tblptrh,c
   476   01E934  0E12               	movlw	low hand15
   477   01E936  6EF6               	movwf	tblptrl,c
   478   01E938  C015  F036         	movff	len_second,counter_display
   479   01E93C  ECAD  F0FB         	call	loop
   480   01E940  0012               	return	
   481   01E942                     display_second16:
   482   01E942  0E01               	movlw	low (hand16 shr (0+16))
   483   01E944  6EF8               	movwf	tblptru,c
   484   01E946  0ED4               	movlw	high hand16
   485   01E948  6EF7               	movwf	tblptrh,c
   486   01E94A  0E6E               	movlw	low hand16
   487   01E94C  6EF6               	movwf	tblptrl,c
   488   01E94E  C015  F036         	movff	len_second,counter_display
   489   01E952  ECAD  F0FB         	call	loop
   490   01E956  0012               	return	
   491   01E958                     display_second17:
   492   01E958  0E01               	movlw	low (hand17 shr (0+16))
   493   01E95A  6EF8               	movwf	tblptru,c
   494   01E95C  0ED4               	movlw	high hand17
   495   01E95E  6EF7               	movwf	tblptrh,c
   496   01E960  0ECA               	movlw	low hand17
   497   01E962  6EF6               	movwf	tblptrl,c
   498   01E964  C015  F036         	movff	len_second,counter_display
   499   01E968  ECAD  F0FB         	call	loop
   500   01E96C  0012               	return	
   501   01E96E                     display_second18:
   502   01E96E  0E01               	movlw	low (hand18 shr (0+16))
   503   01E970  6EF8               	movwf	tblptru,c
   504   01E972  0ED5               	movlw	high hand18
   505   01E974  6EF7               	movwf	tblptrh,c
   506   01E976  0E26               	movlw	low hand18
   507   01E978  6EF6               	movwf	tblptrl,c
   508   01E97A  C015  F036         	movff	len_second,counter_display
   509   01E97E  ECAD  F0FB         	call	loop
   510   01E982  0012               	return	
   511   01E984                     display_second19:
   512   01E984  0E01               	movlw	low (hand19 shr (0+16))
   513   01E986  6EF8               	movwf	tblptru,c
   514   01E988  0ED5               	movlw	high hand19
   515   01E98A  6EF7               	movwf	tblptrh,c
   516   01E98C  0E82               	movlw	low hand19
   517   01E98E  6EF6               	movwf	tblptrl,c
   518   01E990  C015  F036         	movff	len_second,counter_display
   519   01E994  ECAD  F0FB         	call	loop
   520   01E998  0012               	return	
   521   01E99A                     display_second20:
   522   01E99A  0E01               	movlw	low (hand20 shr (0+16))
   523   01E99C  6EF8               	movwf	tblptru,c
   524   01E99E  0ED5               	movlw	high hand20
   525   01E9A0  6EF7               	movwf	tblptrh,c
   526   01E9A2  0EDE               	movlw	low hand20
   527   01E9A4  6EF6               	movwf	tblptrl,c
   528   01E9A6  C015  F036         	movff	len_second,counter_display
   529   01E9AA  ECAD  F0FB         	call	loop
   530   01E9AE  0012               	return	
   531   01E9B0                     display_second21:
   532   01E9B0  0E01               	movlw	low (hand21 shr (0+16))
   533   01E9B2  6EF8               	movwf	tblptru,c
   534   01E9B4  0ED6               	movlw	high hand21
   535   01E9B6  6EF7               	movwf	tblptrh,c
   536   01E9B8  0E3A               	movlw	low hand21
   537   01E9BA  6EF6               	movwf	tblptrl,c
   538   01E9BC  C015  F036         	movff	len_second,counter_display
   539   01E9C0  ECAD  F0FB         	call	loop
   540   01E9C4  0012               	return	
   541   01E9C6                     display_second22:
   542   01E9C6  0E01               	movlw	low (hand22 shr (0+16))
   543   01E9C8  6EF8               	movwf	tblptru,c
   544   01E9CA  0ED6               	movlw	high hand22
   545   01E9CC  6EF7               	movwf	tblptrh,c
   546   01E9CE  0E96               	movlw	low hand22
   547   01E9D0  6EF6               	movwf	tblptrl,c
   548   01E9D2  C015  F036         	movff	len_second,counter_display
   549   01E9D6  ECAD  F0FB         	call	loop
   550   01E9DA  0012               	return	
   551   01E9DC                     display_second23:
   552   01E9DC  0E01               	movlw	low (hand23 shr (0+16))
   553   01E9DE  6EF8               	movwf	tblptru,c
   554   01E9E0  0ED6               	movlw	high hand23
   555   01E9E2  6EF7               	movwf	tblptrh,c
   556   01E9E4  0EF2               	movlw	low hand23
   557   01E9E6  6EF6               	movwf	tblptrl,c
   558   01E9E8  C015  F036         	movff	len_second,counter_display
   559   01E9EC  ECAD  F0FB         	call	loop
   560   01E9F0  0012               	return	
   561   01E9F2                     display_second24:
   562   01E9F2  0E01               	movlw	low (hand24 shr (0+16))
   563   01E9F4  6EF8               	movwf	tblptru,c
   564   01E9F6  0ED7               	movlw	high hand24
   565   01E9F8  6EF7               	movwf	tblptrh,c
   566   01E9FA  0E4E               	movlw	low hand24
   567   01E9FC  6EF6               	movwf	tblptrl,c
   568   01E9FE  C015  F036         	movff	len_second,counter_display
   569   01EA02  ECAD  F0FB         	call	loop
   570   01EA06  0012               	return	
   571   01EA08                     display_second25:
   572   01EA08  0E01               	movlw	low (hand25 shr (0+16))
   573   01EA0A  6EF8               	movwf	tblptru,c
   574   01EA0C  0ED7               	movlw	high hand25
   575   01EA0E  6EF7               	movwf	tblptrh,c
   576   01EA10  0EAA               	movlw	low hand25
   577   01EA12  6EF6               	movwf	tblptrl,c
   578   01EA14  C015  F036         	movff	len_second,counter_display
   579   01EA18  ECAD  F0FB         	call	loop
   580   01EA1C  0012               	return	
   581   01EA1E                     display_second26:
   582   01EA1E  0E01               	movlw	low (hand26 shr (0+16))
   583   01EA20  6EF8               	movwf	tblptru,c
   584   01EA22  0ED8               	movlw	high hand26
   585   01EA24  6EF7               	movwf	tblptrh,c
   586   01EA26  0E06               	movlw	low hand26
   587   01EA28  6EF6               	movwf	tblptrl,c
   588   01EA2A  C015  F036         	movff	len_second,counter_display
   589   01EA2E  ECAD  F0FB         	call	loop
   590   01EA32  0012               	return	
   591   01EA34                     display_second27:
   592   01EA34  0E01               	movlw	low (hand27 shr (0+16))
   593   01EA36  6EF8               	movwf	tblptru,c
   594   01EA38  0ED8               	movlw	high hand27
   595   01EA3A  6EF7               	movwf	tblptrh,c
   596   01EA3C  0E62               	movlw	low hand27
   597   01EA3E  6EF6               	movwf	tblptrl,c
   598   01EA40  C015  F036         	movff	len_second,counter_display
   599   01EA44  ECAD  F0FB         	call	loop
   600   01EA48  0012               	return	
   601   01EA4A                     display_second28:
   602   01EA4A  0E01               	movlw	low (hand28 shr (0+16))
   603   01EA4C  6EF8               	movwf	tblptru,c
   604   01EA4E  0ED8               	movlw	high hand28
   605   01EA50  6EF7               	movwf	tblptrh,c
   606   01EA52  0EBE               	movlw	low hand28
   607   01EA54  6EF6               	movwf	tblptrl,c
   608   01EA56  C015  F036         	movff	len_second,counter_display
   609   01EA5A  ECAD  F0FB         	call	loop
   610   01EA5E  0012               	return	
   611   01EA60                     display_second29:
   612   01EA60  0E01               	movlw	low (hand29 shr (0+16))
   613   01EA62  6EF8               	movwf	tblptru,c
   614   01EA64  0ED9               	movlw	high hand29
   615   01EA66  6EF7               	movwf	tblptrh,c
   616   01EA68  0E1A               	movlw	low hand29
   617   01EA6A  6EF6               	movwf	tblptrl,c
   618   01EA6C  C015  F036         	movff	len_second,counter_display
   619   01EA70  ECAD  F0FB         	call	loop
   620   01EA74  0012               	return	
   621   01EA76                     display_second30:
   622   01EA76  0E01               	movlw	low (hand30 shr (0+16))
   623   01EA78  6EF8               	movwf	tblptru,c
   624   01EA7A  0ED9               	movlw	high hand30
   625   01EA7C  6EF7               	movwf	tblptrh,c
   626   01EA7E  0E76               	movlw	low hand30
   627   01EA80  6EF6               	movwf	tblptrl,c
   628   01EA82  C015  F036         	movff	len_second,counter_display
   629   01EA86  ECAD  F0FB         	call	loop
   630   01EA8A  0012               	return	
   631   01EA8C                     display_second31:
   632   01EA8C  0E01               	movlw	low (hand31 shr (0+16))
   633   01EA8E  6EF8               	movwf	tblptru,c
   634   01EA90  0ED9               	movlw	high hand31
   635   01EA92  6EF7               	movwf	tblptrh,c
   636   01EA94  0ED2               	movlw	low hand31
   637   01EA96  6EF6               	movwf	tblptrl,c
   638   01EA98  C015  F036         	movff	len_second,counter_display
   639   01EA9C  ECAD  F0FB         	call	loop
   640   01EAA0  0012               	return	
   641   01EAA2                     display_second32:
   642   01EAA2  0E01               	movlw	low (hand32 shr (0+16))
   643   01EAA4  6EF8               	movwf	tblptru,c
   644   01EAA6  0EDA               	movlw	high hand32
   645   01EAA8  6EF7               	movwf	tblptrh,c
   646   01EAAA  0E2E               	movlw	low hand32
   647   01EAAC  6EF6               	movwf	tblptrl,c
   648   01EAAE  C015  F036         	movff	len_second,counter_display
   649   01EAB2  ECAD  F0FB         	call	loop
   650   01EAB6  0012               	return	
   651   01EAB8                     display_second33:
   652   01EAB8  0E01               	movlw	low (hand33 shr (0+16))
   653   01EABA  6EF8               	movwf	tblptru,c
   654   01EABC  0EDA               	movlw	high hand33
   655   01EABE  6EF7               	movwf	tblptrh,c
   656   01EAC0  0E8A               	movlw	low hand33
   657   01EAC2  6EF6               	movwf	tblptrl,c
   658   01EAC4  C015  F036         	movff	len_second,counter_display
   659   01EAC8  ECAD  F0FB         	call	loop
   660   01EACC  0012               	return	
   661   01EACE                     display_second34:
   662   01EACE  0E01               	movlw	low (hand34 shr (0+16))
   663   01EAD0  6EF8               	movwf	tblptru,c
   664   01EAD2  0EDA               	movlw	high hand34
   665   01EAD4  6EF7               	movwf	tblptrh,c
   666   01EAD6  0EE6               	movlw	low hand34
   667   01EAD8  6EF6               	movwf	tblptrl,c
   668   01EADA  C015  F036         	movff	len_second,counter_display
   669   01EADE  ECAD  F0FB         	call	loop
   670   01EAE2  0012               	return	
   671   01EAE4                     display_second35:
   672   01EAE4  0E01               	movlw	low (hand35 shr (0+16))
   673   01EAE6  6EF8               	movwf	tblptru,c
   674   01EAE8  0EDB               	movlw	high hand35
   675   01EAEA  6EF7               	movwf	tblptrh,c
   676   01EAEC  0E42               	movlw	low hand35
   677   01EAEE  6EF6               	movwf	tblptrl,c
   678   01EAF0  C015  F036         	movff	len_second,counter_display
   679   01EAF4  ECAD  F0FB         	call	loop
   680   01EAF8  0012               	return	
   681   01EAFA                     display_second36:
   682   01EAFA  0E01               	movlw	low (hand36 shr (0+16))
   683   01EAFC  6EF8               	movwf	tblptru,c
   684   01EAFE  0EDB               	movlw	high hand36
   685   01EB00  6EF7               	movwf	tblptrh,c
   686   01EB02  0E9E               	movlw	low hand36
   687   01EB04  6EF6               	movwf	tblptrl,c
   688   01EB06  C015  F036         	movff	len_second,counter_display
   689   01EB0A  ECAD  F0FB         	call	loop
   690   01EB0E  0012               	return	
   691   01EB10                     display_second37:
   692   01EB10  0E01               	movlw	low (hand37 shr (0+16))
   693   01EB12  6EF8               	movwf	tblptru,c
   694   01EB14  0EDB               	movlw	high hand37
   695   01EB16  6EF7               	movwf	tblptrh,c
   696   01EB18  0EFA               	movlw	low hand37
   697   01EB1A  6EF6               	movwf	tblptrl,c
   698   01EB1C  C015  F036         	movff	len_second,counter_display
   699   01EB20  ECAD  F0FB         	call	loop
   700   01EB24  0012               	return	
   701   01EB26                     display_second38:
   702   01EB26  0E01               	movlw	low (hand38 shr (0+16))
   703   01EB28  6EF8               	movwf	tblptru,c
   704   01EB2A  0EDC               	movlw	high hand38
   705   01EB2C  6EF7               	movwf	tblptrh,c
   706   01EB2E  0E56               	movlw	low hand38
   707   01EB30  6EF6               	movwf	tblptrl,c
   708   01EB32  C015  F036         	movff	len_second,counter_display
   709   01EB36  ECAD  F0FB         	call	loop
   710   01EB3A  0012               	return	
   711   01EB3C                     display_second39:
   712   01EB3C  0E01               	movlw	low (hand39 shr (0+16))
   713   01EB3E  6EF8               	movwf	tblptru,c
   714   01EB40  0EDC               	movlw	high hand39
   715   01EB42  6EF7               	movwf	tblptrh,c
   716   01EB44  0EB2               	movlw	low hand39
   717   01EB46  6EF6               	movwf	tblptrl,c
   718   01EB48  C015  F036         	movff	len_second,counter_display
   719   01EB4C  ECAD  F0FB         	call	loop
   720   01EB50  0012               	return	
   721   01EB52                     display_second40:
   722   01EB52  0E01               	movlw	low (hand40 shr (0+16))
   723   01EB54  6EF8               	movwf	tblptru,c
   724   01EB56  0EDD               	movlw	high hand40
   725   01EB58  6EF7               	movwf	tblptrh,c
   726   01EB5A  0E0E               	movlw	low hand40
   727   01EB5C  6EF6               	movwf	tblptrl,c
   728   01EB5E  C015  F036         	movff	len_second,counter_display
   729   01EB62  ECAD  F0FB         	call	loop
   730   01EB66  0012               	return	
   731   01EB68                     display_second41:
   732   01EB68  0E01               	movlw	low (hand41 shr (0+16))
   733   01EB6A  6EF8               	movwf	tblptru,c
   734   01EB6C  0EDD               	movlw	high hand41
   735   01EB6E  6EF7               	movwf	tblptrh,c
   736   01EB70  0E6A               	movlw	low hand41
   737   01EB72  6EF6               	movwf	tblptrl,c
   738   01EB74  C015  F036         	movff	len_second,counter_display
   739   01EB78  ECAD  F0FB         	call	loop
   740   01EB7C  0012               	return	
   741   01EB7E                     display_second42:
   742   01EB7E  0E01               	movlw	low (hand42 shr (0+16))
   743   01EB80  6EF8               	movwf	tblptru,c
   744   01EB82  0EDD               	movlw	high hand42
   745   01EB84  6EF7               	movwf	tblptrh,c
   746   01EB86  0EC6               	movlw	low hand42
   747   01EB88  6EF6               	movwf	tblptrl,c
   748   01EB8A  C015  F036         	movff	len_second,counter_display
   749   01EB8E  ECAD  F0FB         	call	loop
   750   01EB92  0012               	return	
   751   01EB94                     display_second43:
   752   01EB94  0E01               	movlw	low (hand43 shr (0+16))
   753   01EB96  6EF8               	movwf	tblptru,c
   754   01EB98  0EDE               	movlw	high hand43
   755   01EB9A  6EF7               	movwf	tblptrh,c
   756   01EB9C  0E22               	movlw	low hand43
   757   01EB9E  6EF6               	movwf	tblptrl,c
   758   01EBA0  C015  F036         	movff	len_second,counter_display
   759   01EBA4  ECAD  F0FB         	call	loop
   760   01EBA8  0012               	return	
   761   01EBAA                     display_second44:
   762   01EBAA  0E01               	movlw	low (hand44 shr (0+16))
   763   01EBAC  6EF8               	movwf	tblptru,c
   764   01EBAE  0EDE               	movlw	high hand44
   765   01EBB0  6EF7               	movwf	tblptrh,c
   766   01EBB2  0E7E               	movlw	low hand44
   767   01EBB4  6EF6               	movwf	tblptrl,c
   768   01EBB6  C015  F036         	movff	len_second,counter_display
   769   01EBBA  ECAD  F0FB         	call	loop
   770   01EBBE  0012               	return	
   771   01EBC0                     display_second45:
   772   01EBC0  0E01               	movlw	low (hand45 shr (0+16))
   773   01EBC2  6EF8               	movwf	tblptru,c
   774   01EBC4  0EDE               	movlw	high hand45
   775   01EBC6  6EF7               	movwf	tblptrh,c
   776   01EBC8  0EDA               	movlw	low hand45
   777   01EBCA  6EF6               	movwf	tblptrl,c
   778   01EBCC  C015  F036         	movff	len_second,counter_display
   779   01EBD0  ECAD  F0FB         	call	loop
   780   01EBD4  0012               	return	
   781   01EBD6                     display_second46:
   782   01EBD6  0E01               	movlw	low (hand46 shr (0+16))
   783   01EBD8  6EF8               	movwf	tblptru,c
   784   01EBDA  0EDF               	movlw	high hand46
   785   01EBDC  6EF7               	movwf	tblptrh,c
   786   01EBDE  0E36               	movlw	low hand46
   787   01EBE0  6EF6               	movwf	tblptrl,c
   788   01EBE2  C015  F036         	movff	len_second,counter_display
   789   01EBE6  ECAD  F0FB         	call	loop
   790   01EBEA  0012               	return	
   791   01EBEC                     display_second47:
   792   01EBEC  0E01               	movlw	low (hand47 shr (0+16))
   793   01EBEE  6EF8               	movwf	tblptru,c
   794   01EBF0  0EDF               	movlw	high hand47
   795   01EBF2  6EF7               	movwf	tblptrh,c
   796   01EBF4  0E92               	movlw	low hand47
   797   01EBF6  6EF6               	movwf	tblptrl,c
   798   01EBF8  C015  F036         	movff	len_second,counter_display
   799   01EBFC  ECAD  F0FB         	call	loop
   800   01EC00  0012               	return	
   801   01EC02                     display_second48:
   802   01EC02  0E01               	movlw	low (hand48 shr (0+16))
   803   01EC04  6EF8               	movwf	tblptru,c
   804   01EC06  0EDF               	movlw	high hand48
   805   01EC08  6EF7               	movwf	tblptrh,c
   806   01EC0A  0EEE               	movlw	low hand48
   807   01EC0C  6EF6               	movwf	tblptrl,c
   808   01EC0E  C015  F036         	movff	len_second,counter_display
   809   01EC12  ECAD  F0FB         	call	loop
   810   01EC16  0012               	return	
   811   01EC18                     display_second49:
   812   01EC18  0E01               	movlw	low (hand49 shr (0+16))
   813   01EC1A  6EF8               	movwf	tblptru,c
   814   01EC1C  0EE0               	movlw	high hand49
   815   01EC1E  6EF7               	movwf	tblptrh,c
   816   01EC20  0E4A               	movlw	low hand49
   817   01EC22  6EF6               	movwf	tblptrl,c
   818   01EC24  C015  F036         	movff	len_second,counter_display
   819   01EC28  ECAD  F0FB         	call	loop
   820   01EC2C  0012               	return	
   821   01EC2E                     display_second50:
   822   01EC2E  0E01               	movlw	low (hand50 shr (0+16))
   823   01EC30  6EF8               	movwf	tblptru,c
   824   01EC32  0EE0               	movlw	high hand50
   825   01EC34  6EF7               	movwf	tblptrh,c
   826   01EC36  0EA6               	movlw	low hand50
   827   01EC38  6EF6               	movwf	tblptrl,c
   828   01EC3A  C015  F036         	movff	len_second,counter_display
   829   01EC3E  ECAD  F0FB         	call	loop
   830   01EC42  0012               	return	
   831   01EC44                     display_second51:
   832   01EC44  0E01               	movlw	low (hand51 shr (0+16))
   833   01EC46  6EF8               	movwf	tblptru,c
   834   01EC48  0EE1               	movlw	high hand51
   835   01EC4A  6EF7               	movwf	tblptrh,c
   836   01EC4C  0E02               	movlw	low hand51
   837   01EC4E  6EF6               	movwf	tblptrl,c
   838   01EC50  C015  F036         	movff	len_second,counter_display
   839   01EC54  ECAD  F0FB         	call	loop
   840   01EC58  0012               	return	
   841   01EC5A                     display_second52:
   842   01EC5A  0E01               	movlw	low (hand52 shr (0+16))
   843   01EC5C  6EF8               	movwf	tblptru,c
   844   01EC5E  0EE1               	movlw	high hand52
   845   01EC60  6EF7               	movwf	tblptrh,c
   846   01EC62  0E5E               	movlw	low hand52
   847   01EC64  6EF6               	movwf	tblptrl,c
   848   01EC66  C015  F036         	movff	len_second,counter_display
   849   01EC6A  ECAD  F0FB         	call	loop
   850   01EC6E  0012               	return	
   851   01EC70                     display_second53:
   852   01EC70  0E01               	movlw	low (hand53 shr (0+16))
   853   01EC72  6EF8               	movwf	tblptru,c
   854   01EC74  0EE1               	movlw	high hand53
   855   01EC76  6EF7               	movwf	tblptrh,c
   856   01EC78  0EBA               	movlw	low hand53
   857   01EC7A  6EF6               	movwf	tblptrl,c
   858   01EC7C  C015  F036         	movff	len_second,counter_display
   859   01EC80  ECAD  F0FB         	call	loop
   860   01EC84  0012               	return	
   861   01EC86                     display_second54:
   862   01EC86  0E01               	movlw	low (hand54 shr (0+16))
   863   01EC88  6EF8               	movwf	tblptru,c
   864   01EC8A  0EE2               	movlw	high hand54
   865   01EC8C  6EF7               	movwf	tblptrh,c
   866   01EC8E  0E16               	movlw	low hand54
   867   01EC90  6EF6               	movwf	tblptrl,c
   868   01EC92  C015  F036         	movff	len_second,counter_display
   869   01EC96  ECAD  F0FB         	call	loop
   870   01EC9A  0012               	return	
   871   01EC9C                     display_second55:
   872   01EC9C  0E01               	movlw	low (hand55 shr (0+16))
   873   01EC9E  6EF8               	movwf	tblptru,c
   874   01ECA0  0EE2               	movlw	high hand55
   875   01ECA2  6EF7               	movwf	tblptrh,c
   876   01ECA4  0E72               	movlw	low hand55
   877   01ECA6  6EF6               	movwf	tblptrl,c
   878   01ECA8  C015  F036         	movff	len_second,counter_display
   879   01ECAC  ECAD  F0FB         	call	loop
   880   01ECB0  0012               	return	
   881   01ECB2                     display_second56:
   882   01ECB2  0E01               	movlw	low (hand56 shr (0+16))
   883   01ECB4  6EF8               	movwf	tblptru,c
   884   01ECB6  0EE2               	movlw	high hand56
   885   01ECB8  6EF7               	movwf	tblptrh,c
   886   01ECBA  0ECE               	movlw	low hand56
   887   01ECBC  6EF6               	movwf	tblptrl,c
   888   01ECBE  C015  F036         	movff	len_second,counter_display
   889   01ECC2  ECAD  F0FB         	call	loop
   890   01ECC6  0012               	return	
   891   01ECC8                     display_second57:
   892   01ECC8  0E01               	movlw	low (hand57 shr (0+16))
   893   01ECCA  6EF8               	movwf	tblptru,c
   894   01ECCC  0EE3               	movlw	high hand57
   895   01ECCE  6EF7               	movwf	tblptrh,c
   896   01ECD0  0E2A               	movlw	low hand57
   897   01ECD2  6EF6               	movwf	tblptrl,c
   898   01ECD4  C015  F036         	movff	len_second,counter_display
   899   01ECD8  ECAD  F0FB         	call	loop
   900   01ECDC  0012               	return	
   901   01ECDE                     display_second58:
   902   01ECDE  0E01               	movlw	low (hand58 shr (0+16))
   903   01ECE0  6EF8               	movwf	tblptru,c
   904   01ECE2  0EE3               	movlw	high hand58
   905   01ECE4  6EF7               	movwf	tblptrh,c
   906   01ECE6  0E86               	movlw	low hand58
   907   01ECE8  6EF6               	movwf	tblptrl,c
   908   01ECEA  C015  F036         	movff	len_second,counter_display
   909   01ECEE  ECAD  F0FB         	call	loop
   910   01ECF2  0012               	return	
   911   01ECF4                     display_second59:
   912   01ECF4  0E01               	movlw	low (hand59 shr (0+16))
   913   01ECF6  6EF8               	movwf	tblptru,c
   914   01ECF8  0EE3               	movlw	high hand59
   915   01ECFA  6EF7               	movwf	tblptrh,c
   916   01ECFC  0EE2               	movlw	low hand59
   917   01ECFE  6EF6               	movwf	tblptrl,c
   918   01ED00  C015  F036         	movff	len_second,counter_display
   919   01ED04  ECAD  F0FB         	call	loop
   920   01ED08  0012               	return	
   921   01ED0A                     display_minute0:
   922   01ED0A  0E01               	movlw	low (hand0 shr (0+16))
   923   01ED0C  6EF8               	movwf	tblptru,c
   924   01ED0E  0ECE               	movlw	high hand0
   925   01ED10  6EF7               	movwf	tblptrh,c
   926   01ED12  0EAE               	movlw	low hand0
   927   01ED14  6EF6               	movwf	tblptrl,c
   928   01ED16  C014  F036         	movff	len_minute,counter_display
   929   01ED1A  ECAD  F0FB         	call	loop
   930   01ED1E  0012               	return	
   931   01ED20                     display_minute1:
   932   01ED20  0E01               	movlw	low (hand1 shr (0+16))
   933   01ED22  6EF8               	movwf	tblptru,c
   934   01ED24  0ECF               	movlw	high hand1
   935   01ED26  6EF7               	movwf	tblptrh,c
   936   01ED28  0E0A               	movlw	low hand1
   937   01ED2A  6EF6               	movwf	tblptrl,c
   938   01ED2C  C014  F036         	movff	len_minute,counter_display
   939   01ED30  ECAD  F0FB         	call	loop
   940   01ED34  0012               	return	
   941   01ED36                     display_minute2:
   942   01ED36  0E01               	movlw	low (hand2 shr (0+16))
   943   01ED38  6EF8               	movwf	tblptru,c
   944   01ED3A  0ECF               	movlw	high hand2
   945   01ED3C  6EF7               	movwf	tblptrh,c
   946   01ED3E  0E66               	movlw	low hand2
   947   01ED40  6EF6               	movwf	tblptrl,c
   948   01ED42  C014  F036         	movff	len_minute,counter_display
   949   01ED46  ECAD  F0FB         	call	loop
   950   01ED4A  0012               	return	
   951   01ED4C                     display_minute3:
   952   01ED4C  0E01               	movlw	low (hand3 shr (0+16))
   953   01ED4E  6EF8               	movwf	tblptru,c
   954   01ED50  0ECF               	movlw	high hand3
   955   01ED52  6EF7               	movwf	tblptrh,c
   956   01ED54  0EC2               	movlw	low hand3
   957   01ED56  6EF6               	movwf	tblptrl,c
   958   01ED58  C014  F036         	movff	len_minute,counter_display
   959   01ED5C  ECAD  F0FB         	call	loop
   960   01ED60  0012               	return	
   961   01ED62                     display_minute4:
   962   01ED62  0E01               	movlw	low (hand4 shr (0+16))
   963   01ED64  6EF8               	movwf	tblptru,c
   964   01ED66  0ED0               	movlw	high hand4
   965   01ED68  6EF7               	movwf	tblptrh,c
   966   01ED6A  0E1E               	movlw	low hand4
   967   01ED6C  6EF6               	movwf	tblptrl,c
   968   01ED6E  C014  F036         	movff	len_minute,counter_display
   969   01ED72  ECAD  F0FB         	call	loop
   970   01ED76  0012               	return	
   971   01ED78                     display_minute5:
   972   01ED78  0E01               	movlw	low (hand5 shr (0+16))
   973   01ED7A  6EF8               	movwf	tblptru,c
   974   01ED7C  0ED0               	movlw	high hand5
   975   01ED7E  6EF7               	movwf	tblptrh,c
   976   01ED80  0E7A               	movlw	low hand5
   977   01ED82  6EF6               	movwf	tblptrl,c
   978   01ED84  C014  F036         	movff	len_minute,counter_display
   979   01ED88  ECAD  F0FB         	call	loop
   980   01ED8C  0012               	return	
   981   01ED8E                     display_minute6:
   982   01ED8E  0E01               	movlw	low (hand6 shr (0+16))
   983   01ED90  6EF8               	movwf	tblptru,c
   984   01ED92  0ED0               	movlw	high hand6
   985   01ED94  6EF7               	movwf	tblptrh,c
   986   01ED96  0ED6               	movlw	low hand6
   987   01ED98  6EF6               	movwf	tblptrl,c
   988   01ED9A  C014  F036         	movff	len_minute,counter_display
   989   01ED9E  ECAD  F0FB         	call	loop
   990   01EDA2  0012               	return	
   991   01EDA4                     display_minute7:
   992   01EDA4  0E01               	movlw	low (hand7 shr (0+16))
   993   01EDA6  6EF8               	movwf	tblptru,c
   994   01EDA8  0ED1               	movlw	high hand7
   995   01EDAA  6EF7               	movwf	tblptrh,c
   996   01EDAC  0E32               	movlw	low hand7
   997   01EDAE  6EF6               	movwf	tblptrl,c
   998   01EDB0  C014  F036         	movff	len_minute,counter_display
   999   01EDB4  ECAD  F0FB         	call	loop
  1000   01EDB8  0012               	return	
  1001   01EDBA                     display_minute8:
  1002   01EDBA  0E01               	movlw	low (hand8 shr (0+16))
  1003   01EDBC  6EF8               	movwf	tblptru,c
  1004   01EDBE  0ED1               	movlw	high hand8
  1005   01EDC0  6EF7               	movwf	tblptrh,c
  1006   01EDC2  0E8E               	movlw	low hand8
  1007   01EDC4  6EF6               	movwf	tblptrl,c
  1008   01EDC6  C014  F036         	movff	len_minute,counter_display
  1009   01EDCA  ECAD  F0FB         	call	loop
  1010   01EDCE  0012               	return	
  1011   01EDD0                     display_minute9:
  1012   01EDD0  0E01               	movlw	low (hand9 shr (0+16))
  1013   01EDD2  6EF8               	movwf	tblptru,c
  1014   01EDD4  0ED1               	movlw	high hand9
  1015   01EDD6  6EF7               	movwf	tblptrh,c
  1016   01EDD8  0EEA               	movlw	low hand9
  1017   01EDDA  6EF6               	movwf	tblptrl,c
  1018   01EDDC  C014  F036         	movff	len_minute,counter_display
  1019   01EDE0  ECAD  F0FB         	call	loop
  1020   01EDE4  0012               	return	
  1021   01EDE6                     display_minute10:
  1022   01EDE6  0E01               	movlw	low (hand10 shr (0+16))
  1023   01EDE8  6EF8               	movwf	tblptru,c
  1024   01EDEA  0ED2               	movlw	high hand10
  1025   01EDEC  6EF7               	movwf	tblptrh,c
  1026   01EDEE  0E46               	movlw	low hand10
  1027   01EDF0  6EF6               	movwf	tblptrl,c
  1028   01EDF2  C014  F036         	movff	len_minute,counter_display
  1029   01EDF6  ECAD  F0FB         	call	loop
  1030   01EDFA  0012               	return	
  1031   01EDFC                     display_minute11:
  1032   01EDFC  0E01               	movlw	low (hand11 shr (0+16))
  1033   01EDFE  6EF8               	movwf	tblptru,c
  1034   01EE00  0ED2               	movlw	high hand11
  1035   01EE02  6EF7               	movwf	tblptrh,c
  1036   01EE04  0EA2               	movlw	low hand11
  1037   01EE06  6EF6               	movwf	tblptrl,c
  1038   01EE08  C014  F036         	movff	len_minute,counter_display
  1039   01EE0C  ECAD  F0FB         	call	loop
  1040   01EE10  0012               	return	
  1041   01EE12                     display_minute12:
  1042   01EE12  0E01               	movlw	low (hand12 shr (0+16))
  1043   01EE14  6EF8               	movwf	tblptru,c
  1044   01EE16  0ED2               	movlw	high hand12
  1045   01EE18  6EF7               	movwf	tblptrh,c
  1046   01EE1A  0EFE               	movlw	low hand12
  1047   01EE1C  6EF6               	movwf	tblptrl,c
  1048   01EE1E  C014  F036         	movff	len_minute,counter_display
  1049   01EE22  ECAD  F0FB         	call	loop
  1050   01EE26  0012               	return	
  1051   01EE28                     display_minute13:
  1052   01EE28  0E01               	movlw	low (hand13 shr (0+16))
  1053   01EE2A  6EF8               	movwf	tblptru,c
  1054   01EE2C  0ED3               	movlw	high hand13
  1055   01EE2E  6EF7               	movwf	tblptrh,c
  1056   01EE30  0E5A               	movlw	low hand13
  1057   01EE32  6EF6               	movwf	tblptrl,c
  1058   01EE34  C014  F036         	movff	len_minute,counter_display
  1059   01EE38  ECAD  F0FB         	call	loop
  1060   01EE3C  0012               	return	
  1061   01EE3E                     display_minute14:
  1062   01EE3E  0E01               	movlw	low (hand14 shr (0+16))
  1063   01EE40  6EF8               	movwf	tblptru,c
  1064   01EE42  0ED3               	movlw	high hand14
  1065   01EE44  6EF7               	movwf	tblptrh,c
  1066   01EE46  0EB6               	movlw	low hand14
  1067   01EE48  6EF6               	movwf	tblptrl,c
  1068   01EE4A  C014  F036         	movff	len_minute,counter_display
  1069   01EE4E  ECAD  F0FB         	call	loop
  1070   01EE52  0012               	return	
  1071   01EE54                     display_minute15:
  1072   01EE54  0E01               	movlw	low (hand15 shr (0+16))
  1073   01EE56  6EF8               	movwf	tblptru,c
  1074   01EE58  0ED4               	movlw	high hand15
  1075   01EE5A  6EF7               	movwf	tblptrh,c
  1076   01EE5C  0E12               	movlw	low hand15
  1077   01EE5E  6EF6               	movwf	tblptrl,c
  1078   01EE60  C014  F036         	movff	len_minute,counter_display
  1079   01EE64  ECAD  F0FB         	call	loop
  1080   01EE68  0012               	return	
  1081   01EE6A                     display_minute16:
  1082   01EE6A  0E01               	movlw	low (hand16 shr (0+16))
  1083   01EE6C  6EF8               	movwf	tblptru,c
  1084   01EE6E  0ED4               	movlw	high hand16
  1085   01EE70  6EF7               	movwf	tblptrh,c
  1086   01EE72  0E6E               	movlw	low hand16
  1087   01EE74  6EF6               	movwf	tblptrl,c
  1088   01EE76  C014  F036         	movff	len_minute,counter_display
  1089   01EE7A  ECAD  F0FB         	call	loop
  1090   01EE7E  0012               	return	
  1091   01EE80                     display_minute17:
  1092   01EE80  0E01               	movlw	low (hand17 shr (0+16))
  1093   01EE82  6EF8               	movwf	tblptru,c
  1094   01EE84  0ED4               	movlw	high hand17
  1095   01EE86  6EF7               	movwf	tblptrh,c
  1096   01EE88  0ECA               	movlw	low hand17
  1097   01EE8A  6EF6               	movwf	tblptrl,c
  1098   01EE8C  C014  F036         	movff	len_minute,counter_display
  1099   01EE90  ECAD  F0FB         	call	loop
  1100   01EE94  0012               	return	
  1101   01EE96                     display_minute18:
  1102   01EE96  0E01               	movlw	low (hand18 shr (0+16))
  1103   01EE98  6EF8               	movwf	tblptru,c
  1104   01EE9A  0ED5               	movlw	high hand18
  1105   01EE9C  6EF7               	movwf	tblptrh,c
  1106   01EE9E  0E26               	movlw	low hand18
  1107   01EEA0  6EF6               	movwf	tblptrl,c
  1108   01EEA2  C014  F036         	movff	len_minute,counter_display
  1109   01EEA6  ECAD  F0FB         	call	loop
  1110   01EEAA  0012               	return	
  1111   01EEAC                     display_minute19:
  1112   01EEAC  0E01               	movlw	low (hand19 shr (0+16))
  1113   01EEAE  6EF8               	movwf	tblptru,c
  1114   01EEB0  0ED5               	movlw	high hand19
  1115   01EEB2  6EF7               	movwf	tblptrh,c
  1116   01EEB4  0E82               	movlw	low hand19
  1117   01EEB6  6EF6               	movwf	tblptrl,c
  1118   01EEB8  C014  F036         	movff	len_minute,counter_display
  1119   01EEBC  ECAD  F0FB         	call	loop
  1120   01EEC0  0012               	return	
  1121   01EEC2                     display_minute20:
  1122   01EEC2  0E01               	movlw	low (hand20 shr (0+16))
  1123   01EEC4  6EF8               	movwf	tblptru,c
  1124   01EEC6  0ED5               	movlw	high hand20
  1125   01EEC8  6EF7               	movwf	tblptrh,c
  1126   01EECA  0EDE               	movlw	low hand20
  1127   01EECC  6EF6               	movwf	tblptrl,c
  1128   01EECE  C014  F036         	movff	len_minute,counter_display
  1129   01EED2  ECAD  F0FB         	call	loop
  1130   01EED6  0012               	return	
  1131   01EED8                     display_minute21:
  1132   01EED8  0E01               	movlw	low (hand21 shr (0+16))
  1133   01EEDA  6EF8               	movwf	tblptru,c
  1134   01EEDC  0ED6               	movlw	high hand21
  1135   01EEDE  6EF7               	movwf	tblptrh,c
  1136   01EEE0  0E3A               	movlw	low hand21
  1137   01EEE2  6EF6               	movwf	tblptrl,c
  1138   01EEE4  C014  F036         	movff	len_minute,counter_display
  1139   01EEE8  ECAD  F0FB         	call	loop
  1140   01EEEC  0012               	return	
  1141   01EEEE                     display_minute22:
  1142   01EEEE  0E01               	movlw	low (hand22 shr (0+16))
  1143   01EEF0  6EF8               	movwf	tblptru,c
  1144   01EEF2  0ED6               	movlw	high hand22
  1145   01EEF4  6EF7               	movwf	tblptrh,c
  1146   01EEF6  0E96               	movlw	low hand22
  1147   01EEF8  6EF6               	movwf	tblptrl,c
  1148   01EEFA  C014  F036         	movff	len_minute,counter_display
  1149   01EEFE  ECAD  F0FB         	call	loop
  1150   01EF02  0012               	return	
  1151   01EF04                     display_minute23:
  1152   01EF04  0E01               	movlw	low (hand23 shr (0+16))
  1153   01EF06  6EF8               	movwf	tblptru,c
  1154   01EF08  0ED6               	movlw	high hand23
  1155   01EF0A  6EF7               	movwf	tblptrh,c
  1156   01EF0C  0EF2               	movlw	low hand23
  1157   01EF0E  6EF6               	movwf	tblptrl,c
  1158   01EF10  C014  F036         	movff	len_minute,counter_display
  1159   01EF14  ECAD  F0FB         	call	loop
  1160   01EF18  0012               	return	
  1161   01EF1A                     display_minute24:
  1162   01EF1A  0E01               	movlw	low (hand24 shr (0+16))
  1163   01EF1C  6EF8               	movwf	tblptru,c
  1164   01EF1E  0ED7               	movlw	high hand24
  1165   01EF20  6EF7               	movwf	tblptrh,c
  1166   01EF22  0E4E               	movlw	low hand24
  1167   01EF24  6EF6               	movwf	tblptrl,c
  1168   01EF26  C014  F036         	movff	len_minute,counter_display
  1169   01EF2A  ECAD  F0FB         	call	loop
  1170   01EF2E  0012               	return	
  1171   01EF30                     display_minute25:
  1172   01EF30  0E01               	movlw	low (hand25 shr (0+16))
  1173   01EF32  6EF8               	movwf	tblptru,c
  1174   01EF34  0ED7               	movlw	high hand25
  1175   01EF36  6EF7               	movwf	tblptrh,c
  1176   01EF38  0EAA               	movlw	low hand25
  1177   01EF3A  6EF6               	movwf	tblptrl,c
  1178   01EF3C  C014  F036         	movff	len_minute,counter_display
  1179   01EF40  ECAD  F0FB         	call	loop
  1180   01EF44  0012               	return	
  1181   01EF46                     display_minute26:
  1182   01EF46  0E01               	movlw	low (hand26 shr (0+16))
  1183   01EF48  6EF8               	movwf	tblptru,c
  1184   01EF4A  0ED8               	movlw	high hand26
  1185   01EF4C  6EF7               	movwf	tblptrh,c
  1186   01EF4E  0E06               	movlw	low hand26
  1187   01EF50  6EF6               	movwf	tblptrl,c
  1188   01EF52  C014  F036         	movff	len_minute,counter_display
  1189   01EF56  ECAD  F0FB         	call	loop
  1190   01EF5A  0012               	return	
  1191   01EF5C                     display_minute27:
  1192   01EF5C  0E01               	movlw	low (hand27 shr (0+16))
  1193   01EF5E  6EF8               	movwf	tblptru,c
  1194   01EF60  0ED8               	movlw	high hand27
  1195   01EF62  6EF7               	movwf	tblptrh,c
  1196   01EF64  0E62               	movlw	low hand27
  1197   01EF66  6EF6               	movwf	tblptrl,c
  1198   01EF68  C014  F036         	movff	len_minute,counter_display
  1199   01EF6C  ECAD  F0FB         	call	loop
  1200   01EF70  0012               	return	
  1201   01EF72                     display_minute28:
  1202   01EF72  0E01               	movlw	low (hand28 shr (0+16))
  1203   01EF74  6EF8               	movwf	tblptru,c
  1204   01EF76  0ED8               	movlw	high hand28
  1205   01EF78  6EF7               	movwf	tblptrh,c
  1206   01EF7A  0EBE               	movlw	low hand28
  1207   01EF7C  6EF6               	movwf	tblptrl,c
  1208   01EF7E  C014  F036         	movff	len_minute,counter_display
  1209   01EF82  ECAD  F0FB         	call	loop
  1210   01EF86  0012               	return	
  1211   01EF88                     display_minute29:
  1212   01EF88  0E01               	movlw	low (hand29 shr (0+16))
  1213   01EF8A  6EF8               	movwf	tblptru,c
  1214   01EF8C  0ED9               	movlw	high hand29
  1215   01EF8E  6EF7               	movwf	tblptrh,c
  1216   01EF90  0E1A               	movlw	low hand29
  1217   01EF92  6EF6               	movwf	tblptrl,c
  1218   01EF94  C014  F036         	movff	len_minute,counter_display
  1219   01EF98  ECAD  F0FB         	call	loop
  1220   01EF9C  0012               	return	
  1221   01EF9E                     display_minute30:
  1222   01EF9E  0E01               	movlw	low (hand30 shr (0+16))
  1223   01EFA0  6EF8               	movwf	tblptru,c
  1224   01EFA2  0ED9               	movlw	high hand30
  1225   01EFA4  6EF7               	movwf	tblptrh,c
  1226   01EFA6  0E76               	movlw	low hand30
  1227   01EFA8  6EF6               	movwf	tblptrl,c
  1228   01EFAA  C014  F036         	movff	len_minute,counter_display
  1229   01EFAE  ECAD  F0FB         	call	loop
  1230   01EFB2  0012               	return	
  1231   01EFB4                     display_minute31:
  1232   01EFB4  0E01               	movlw	low (hand31 shr (0+16))
  1233   01EFB6  6EF8               	movwf	tblptru,c
  1234   01EFB8  0ED9               	movlw	high hand31
  1235   01EFBA  6EF7               	movwf	tblptrh,c
  1236   01EFBC  0ED2               	movlw	low hand31
  1237   01EFBE  6EF6               	movwf	tblptrl,c
  1238   01EFC0  C014  F036         	movff	len_minute,counter_display
  1239   01EFC4  ECAD  F0FB         	call	loop
  1240   01EFC8  0012               	return	
  1241   01EFCA                     display_minute32:
  1242   01EFCA  0E01               	movlw	low (hand32 shr (0+16))
  1243   01EFCC  6EF8               	movwf	tblptru,c
  1244   01EFCE  0EDA               	movlw	high hand32
  1245   01EFD0  6EF7               	movwf	tblptrh,c
  1246   01EFD2  0E2E               	movlw	low hand32
  1247   01EFD4  6EF6               	movwf	tblptrl,c
  1248   01EFD6  C014  F036         	movff	len_minute,counter_display
  1249   01EFDA  ECAD  F0FB         	call	loop
  1250   01EFDE  0012               	return	
  1251   01EFE0                     display_minute33:
  1252   01EFE0  0E01               	movlw	low (hand33 shr (0+16))
  1253   01EFE2  6EF8               	movwf	tblptru,c
  1254   01EFE4  0EDA               	movlw	high hand33
  1255   01EFE6  6EF7               	movwf	tblptrh,c
  1256   01EFE8  0E8A               	movlw	low hand33
  1257   01EFEA  6EF6               	movwf	tblptrl,c
  1258   01EFEC  C014  F036         	movff	len_minute,counter_display
  1259   01EFF0  ECAD  F0FB         	call	loop
  1260   01EFF4  0012               	return	
  1261   01EFF6                     display_minute34:
  1262   01EFF6  0E01               	movlw	low (hand34 shr (0+16))
  1263   01EFF8  6EF8               	movwf	tblptru,c
  1264   01EFFA  0EDA               	movlw	high hand34
  1265   01EFFC  6EF7               	movwf	tblptrh,c
  1266   01EFFE  0EE6               	movlw	low hand34
  1267   01F000  6EF6               	movwf	tblptrl,c
  1268   01F002  C014  F036         	movff	len_minute,counter_display
  1269   01F006  ECAD  F0FB         	call	loop
  1270   01F00A  0012               	return	
  1271   01F00C                     display_minute35:
  1272   01F00C  0E01               	movlw	low (hand35 shr (0+16))
  1273   01F00E  6EF8               	movwf	tblptru,c
  1274   01F010  0EDB               	movlw	high hand35
  1275   01F012  6EF7               	movwf	tblptrh,c
  1276   01F014  0E42               	movlw	low hand35
  1277   01F016  6EF6               	movwf	tblptrl,c
  1278   01F018  C014  F036         	movff	len_minute,counter_display
  1279   01F01C  ECAD  F0FB         	call	loop
  1280   01F020  0012               	return	
  1281   01F022                     display_minute36:
  1282   01F022  0E01               	movlw	low (hand36 shr (0+16))
  1283   01F024  6EF8               	movwf	tblptru,c
  1284   01F026  0EDB               	movlw	high hand36
  1285   01F028  6EF7               	movwf	tblptrh,c
  1286   01F02A  0E9E               	movlw	low hand36
  1287   01F02C  6EF6               	movwf	tblptrl,c
  1288   01F02E  C014  F036         	movff	len_minute,counter_display
  1289   01F032  ECAD  F0FB         	call	loop
  1290   01F036  0012               	return	
  1291   01F038                     display_minute37:
  1292   01F038  0E01               	movlw	low (hand37 shr (0+16))
  1293   01F03A  6EF8               	movwf	tblptru,c
  1294   01F03C  0EDB               	movlw	high hand37
  1295   01F03E  6EF7               	movwf	tblptrh,c
  1296   01F040  0EFA               	movlw	low hand37
  1297   01F042  6EF6               	movwf	tblptrl,c
  1298   01F044  C014  F036         	movff	len_minute,counter_display
  1299   01F048  ECAD  F0FB         	call	loop
  1300   01F04C  0012               	return	
  1301   01F04E                     display_minute38:
  1302   01F04E  0E01               	movlw	low (hand38 shr (0+16))
  1303   01F050  6EF8               	movwf	tblptru,c
  1304   01F052  0EDC               	movlw	high hand38
  1305   01F054  6EF7               	movwf	tblptrh,c
  1306   01F056  0E56               	movlw	low hand38
  1307   01F058  6EF6               	movwf	tblptrl,c
  1308   01F05A  C014  F036         	movff	len_minute,counter_display
  1309   01F05E  ECAD  F0FB         	call	loop
  1310   01F062  0012               	return	
  1311   01F064                     display_minute39:
  1312   01F064  0E01               	movlw	low (hand39 shr (0+16))
  1313   01F066  6EF8               	movwf	tblptru,c
  1314   01F068  0EDC               	movlw	high hand39
  1315   01F06A  6EF7               	movwf	tblptrh,c
  1316   01F06C  0EB2               	movlw	low hand39
  1317   01F06E  6EF6               	movwf	tblptrl,c
  1318   01F070  C014  F036         	movff	len_minute,counter_display
  1319   01F074  ECAD  F0FB         	call	loop
  1320   01F078  0012               	return	
  1321   01F07A                     display_minute40:
  1322   01F07A  0E01               	movlw	low (hand40 shr (0+16))
  1323   01F07C  6EF8               	movwf	tblptru,c
  1324   01F07E  0EDD               	movlw	high hand40
  1325   01F080  6EF7               	movwf	tblptrh,c
  1326   01F082  0E0E               	movlw	low hand40
  1327   01F084  6EF6               	movwf	tblptrl,c
  1328   01F086  C014  F036         	movff	len_minute,counter_display
  1329   01F08A  ECAD  F0FB         	call	loop
  1330   01F08E  0012               	return	
  1331   01F090                     display_minute41:
  1332   01F090  0E01               	movlw	low (hand41 shr (0+16))
  1333   01F092  6EF8               	movwf	tblptru,c
  1334   01F094  0EDD               	movlw	high hand41
  1335   01F096  6EF7               	movwf	tblptrh,c
  1336   01F098  0E6A               	movlw	low hand41
  1337   01F09A  6EF6               	movwf	tblptrl,c
  1338   01F09C  C014  F036         	movff	len_minute,counter_display
  1339   01F0A0  ECAD  F0FB         	call	loop
  1340   01F0A4  0012               	return	
  1341   01F0A6                     display_minute42:
  1342   01F0A6  0E01               	movlw	low (hand42 shr (0+16))
  1343   01F0A8  6EF8               	movwf	tblptru,c
  1344   01F0AA  0EDD               	movlw	high hand42
  1345   01F0AC  6EF7               	movwf	tblptrh,c
  1346   01F0AE  0EC6               	movlw	low hand42
  1347   01F0B0  6EF6               	movwf	tblptrl,c
  1348   01F0B2  C014  F036         	movff	len_minute,counter_display
  1349   01F0B6  ECAD  F0FB         	call	loop
  1350   01F0BA  0012               	return	
  1351   01F0BC                     display_minute43:
  1352   01F0BC  0E01               	movlw	low (hand43 shr (0+16))
  1353   01F0BE  6EF8               	movwf	tblptru,c
  1354   01F0C0  0EDE               	movlw	high hand43
  1355   01F0C2  6EF7               	movwf	tblptrh,c
  1356   01F0C4  0E22               	movlw	low hand43
  1357   01F0C6  6EF6               	movwf	tblptrl,c
  1358   01F0C8  C014  F036         	movff	len_minute,counter_display
  1359   01F0CC  ECAD  F0FB         	call	loop
  1360   01F0D0  0012               	return	
  1361   01F0D2                     display_minute44:
  1362   01F0D2  0E01               	movlw	low (hand44 shr (0+16))
  1363   01F0D4  6EF8               	movwf	tblptru,c
  1364   01F0D6  0EDE               	movlw	high hand44
  1365   01F0D8  6EF7               	movwf	tblptrh,c
  1366   01F0DA  0E7E               	movlw	low hand44
  1367   01F0DC  6EF6               	movwf	tblptrl,c
  1368   01F0DE  C014  F036         	movff	len_minute,counter_display
  1369   01F0E2  ECAD  F0FB         	call	loop
  1370   01F0E6  0012               	return	
  1371   01F0E8                     display_minute45:
  1372   01F0E8  0E01               	movlw	low (hand45 shr (0+16))
  1373   01F0EA  6EF8               	movwf	tblptru,c
  1374   01F0EC  0EDE               	movlw	high hand45
  1375   01F0EE  6EF7               	movwf	tblptrh,c
  1376   01F0F0  0EDA               	movlw	low hand45
  1377   01F0F2  6EF6               	movwf	tblptrl,c
  1378   01F0F4  C014  F036         	movff	len_minute,counter_display
  1379   01F0F8  ECAD  F0FB         	call	loop
  1380   01F0FC  0012               	return	
  1381   01F0FE                     display_minute46:
  1382   01F0FE  0E01               	movlw	low (hand46 shr (0+16))
  1383   01F100  6EF8               	movwf	tblptru,c
  1384   01F102  0EDF               	movlw	high hand46
  1385   01F104  6EF7               	movwf	tblptrh,c
  1386   01F106  0E36               	movlw	low hand46
  1387   01F108  6EF6               	movwf	tblptrl,c
  1388   01F10A  C014  F036         	movff	len_minute,counter_display
  1389   01F10E  ECAD  F0FB         	call	loop
  1390   01F112  0012               	return	
  1391   01F114                     display_minute47:
  1392   01F114  0E01               	movlw	low (hand47 shr (0+16))
  1393   01F116  6EF8               	movwf	tblptru,c
  1394   01F118  0EDF               	movlw	high hand47
  1395   01F11A  6EF7               	movwf	tblptrh,c
  1396   01F11C  0E92               	movlw	low hand47
  1397   01F11E  6EF6               	movwf	tblptrl,c
  1398   01F120  C014  F036         	movff	len_minute,counter_display
  1399   01F124  ECAD  F0FB         	call	loop
  1400   01F128  0012               	return	
  1401   01F12A                     display_minute48:
  1402   01F12A  0E01               	movlw	low (hand48 shr (0+16))
  1403   01F12C  6EF8               	movwf	tblptru,c
  1404   01F12E  0EDF               	movlw	high hand48
  1405   01F130  6EF7               	movwf	tblptrh,c
  1406   01F132  0EEE               	movlw	low hand48
  1407   01F134  6EF6               	movwf	tblptrl,c
  1408   01F136  C014  F036         	movff	len_minute,counter_display
  1409   01F13A  ECAD  F0FB         	call	loop
  1410   01F13E  0012               	return	
  1411   01F140                     display_minute49:
  1412   01F140  0E01               	movlw	low (hand49 shr (0+16))
  1413   01F142  6EF8               	movwf	tblptru,c
  1414   01F144  0EE0               	movlw	high hand49
  1415   01F146  6EF7               	movwf	tblptrh,c
  1416   01F148  0E4A               	movlw	low hand49
  1417   01F14A  6EF6               	movwf	tblptrl,c
  1418   01F14C  C014  F036         	movff	len_minute,counter_display
  1419   01F150  ECAD  F0FB         	call	loop
  1420   01F154  0012               	return	
  1421   01F156                     display_minute50:
  1422   01F156  0E01               	movlw	low (hand50 shr (0+16))
  1423   01F158  6EF8               	movwf	tblptru,c
  1424   01F15A  0EE0               	movlw	high hand50
  1425   01F15C  6EF7               	movwf	tblptrh,c
  1426   01F15E  0EA6               	movlw	low hand50
  1427   01F160  6EF6               	movwf	tblptrl,c
  1428   01F162  C014  F036         	movff	len_minute,counter_display
  1429   01F166  ECAD  F0FB         	call	loop
  1430   01F16A  0012               	return	
  1431   01F16C                     display_minute51:
  1432   01F16C  0E01               	movlw	low (hand51 shr (0+16))
  1433   01F16E  6EF8               	movwf	tblptru,c
  1434   01F170  0EE1               	movlw	high hand51
  1435   01F172  6EF7               	movwf	tblptrh,c
  1436   01F174  0E02               	movlw	low hand51
  1437   01F176  6EF6               	movwf	tblptrl,c
  1438   01F178  C014  F036         	movff	len_minute,counter_display
  1439   01F17C  ECAD  F0FB         	call	loop
  1440   01F180  0012               	return	
  1441   01F182                     display_minute52:
  1442   01F182  0E01               	movlw	low (hand52 shr (0+16))
  1443   01F184  6EF8               	movwf	tblptru,c
  1444   01F186  0EE1               	movlw	high hand52
  1445   01F188  6EF7               	movwf	tblptrh,c
  1446   01F18A  0E5E               	movlw	low hand52
  1447   01F18C  6EF6               	movwf	tblptrl,c
  1448   01F18E  C014  F036         	movff	len_minute,counter_display
  1449   01F192  ECAD  F0FB         	call	loop
  1450   01F196  0012               	return	
  1451   01F198                     display_minute53:
  1452   01F198  0E01               	movlw	low (hand53 shr (0+16))
  1453   01F19A  6EF8               	movwf	tblptru,c
  1454   01F19C  0EE1               	movlw	high hand53
  1455   01F19E  6EF7               	movwf	tblptrh,c
  1456   01F1A0  0EBA               	movlw	low hand53
  1457   01F1A2  6EF6               	movwf	tblptrl,c
  1458   01F1A4  C014  F036         	movff	len_minute,counter_display
  1459   01F1A8  ECAD  F0FB         	call	loop
  1460   01F1AC  0012               	return	
  1461   01F1AE                     display_minute54:
  1462   01F1AE  0E01               	movlw	low (hand54 shr (0+16))
  1463   01F1B0  6EF8               	movwf	tblptru,c
  1464   01F1B2  0EE2               	movlw	high hand54
  1465   01F1B4  6EF7               	movwf	tblptrh,c
  1466   01F1B6  0E16               	movlw	low hand54
  1467   01F1B8  6EF6               	movwf	tblptrl,c
  1468   01F1BA  C014  F036         	movff	len_minute,counter_display
  1469   01F1BE  ECAD  F0FB         	call	loop
  1470   01F1C2  0012               	return	
  1471   01F1C4                     display_minute55:
  1472   01F1C4  0E01               	movlw	low (hand55 shr (0+16))
  1473   01F1C6  6EF8               	movwf	tblptru,c
  1474   01F1C8  0EE2               	movlw	high hand55
  1475   01F1CA  6EF7               	movwf	tblptrh,c
  1476   01F1CC  0E72               	movlw	low hand55
  1477   01F1CE  6EF6               	movwf	tblptrl,c
  1478   01F1D0  C014  F036         	movff	len_minute,counter_display
  1479   01F1D4  ECAD  F0FB         	call	loop
  1480   01F1D8  0012               	return	
  1481   01F1DA                     display_minute56:
  1482   01F1DA  0E01               	movlw	low (hand56 shr (0+16))
  1483   01F1DC  6EF8               	movwf	tblptru,c
  1484   01F1DE  0EE2               	movlw	high hand56
  1485   01F1E0  6EF7               	movwf	tblptrh,c
  1486   01F1E2  0ECE               	movlw	low hand56
  1487   01F1E4  6EF6               	movwf	tblptrl,c
  1488   01F1E6  C014  F036         	movff	len_minute,counter_display
  1489   01F1EA  ECAD  F0FB         	call	loop
  1490   01F1EE  0012               	return	
  1491   01F1F0                     display_minute57:
  1492   01F1F0  0E01               	movlw	low (hand57 shr (0+16))
  1493   01F1F2  6EF8               	movwf	tblptru,c
  1494   01F1F4  0EE3               	movlw	high hand57
  1495   01F1F6  6EF7               	movwf	tblptrh,c
  1496   01F1F8  0E2A               	movlw	low hand57
  1497   01F1FA  6EF6               	movwf	tblptrl,c
  1498   01F1FC  C014  F036         	movff	len_minute,counter_display
  1499   01F200  ECAD  F0FB         	call	loop
  1500   01F204  0012               	return	
  1501   01F206                     display_minute58:
  1502   01F206  0E01               	movlw	low (hand58 shr (0+16))
  1503   01F208  6EF8               	movwf	tblptru,c
  1504   01F20A  0EE3               	movlw	high hand58
  1505   01F20C  6EF7               	movwf	tblptrh,c
  1506   01F20E  0E86               	movlw	low hand58
  1507   01F210  6EF6               	movwf	tblptrl,c
  1508   01F212  C014  F036         	movff	len_minute,counter_display
  1509   01F216  ECAD  F0FB         	call	loop
  1510   01F21A  0012               	return	
  1511   01F21C                     display_minute59:
  1512   01F21C  0E01               	movlw	low (hand59 shr (0+16))
  1513   01F21E  6EF8               	movwf	tblptru,c
  1514   01F220  0EE3               	movlw	high hand59
  1515   01F222  6EF7               	movwf	tblptrh,c
  1516   01F224  0EE2               	movlw	low hand59
  1517   01F226  6EF6               	movwf	tblptrl,c
  1518   01F228  C014  F036         	movff	len_minute,counter_display
  1519   01F22C  ECAD  F0FB         	call	loop
  1520   01F230  0012               	return	
  1521   01F232                     display_hour0:
  1522   01F232  0E01               	movlw	low (hand0 shr (0+16))
  1523   01F234  6EF8               	movwf	tblptru,c
  1524   01F236  0ECE               	movlw	high hand0
  1525   01F238  6EF7               	movwf	tblptrh,c
  1526   01F23A  0EAE               	movlw	low hand0
  1527   01F23C  6EF6               	movwf	tblptrl,c
  1528   01F23E  C013  F036         	movff	len_hour,counter_display
  1529   01F242  ECAD  F0FB         	call	loop
  1530   01F246  0012               	return	
  1531   01F248                     display_hour1:
  1532   01F248  0E01               	movlw	low (hand1 shr (0+16))
  1533   01F24A  6EF8               	movwf	tblptru,c
  1534   01F24C  0ECF               	movlw	high hand1
  1535   01F24E  6EF7               	movwf	tblptrh,c
  1536   01F250  0E0A               	movlw	low hand1
  1537   01F252  6EF6               	movwf	tblptrl,c
  1538   01F254  C013  F036         	movff	len_hour,counter_display
  1539   01F258  ECAD  F0FB         	call	loop
  1540   01F25C  0012               	return	
  1541   01F25E                     display_hour2:
  1542   01F25E  0E01               	movlw	low (hand2 shr (0+16))
  1543   01F260  6EF8               	movwf	tblptru,c
  1544   01F262  0ECF               	movlw	high hand2
  1545   01F264  6EF7               	movwf	tblptrh,c
  1546   01F266  0E66               	movlw	low hand2
  1547   01F268  6EF6               	movwf	tblptrl,c
  1548   01F26A  C013  F036         	movff	len_hour,counter_display
  1549   01F26E  ECAD  F0FB         	call	loop
  1550   01F272  0012               	return	
  1551   01F274                     display_hour3:
  1552   01F274  0E01               	movlw	low (hand3 shr (0+16))
  1553   01F276  6EF8               	movwf	tblptru,c
  1554   01F278  0ECF               	movlw	high hand3
  1555   01F27A  6EF7               	movwf	tblptrh,c
  1556   01F27C  0EC2               	movlw	low hand3
  1557   01F27E  6EF6               	movwf	tblptrl,c
  1558   01F280  C013  F036         	movff	len_hour,counter_display
  1559   01F284  ECAD  F0FB         	call	loop
  1560   01F288  0012               	return	
  1561   01F28A                     display_hour4:
  1562   01F28A  0E01               	movlw	low (hand4 shr (0+16))
  1563   01F28C  6EF8               	movwf	tblptru,c
  1564   01F28E  0ED0               	movlw	high hand4
  1565   01F290  6EF7               	movwf	tblptrh,c
  1566   01F292  0E1E               	movlw	low hand4
  1567   01F294  6EF6               	movwf	tblptrl,c
  1568   01F296  C013  F036         	movff	len_hour,counter_display
  1569   01F29A  ECAD  F0FB         	call	loop
  1570   01F29E  0012               	return	
  1571   01F2A0                     display_hour5:
  1572   01F2A0  0E01               	movlw	low (hand5 shr (0+16))
  1573   01F2A2  6EF8               	movwf	tblptru,c
  1574   01F2A4  0ED0               	movlw	high hand5
  1575   01F2A6  6EF7               	movwf	tblptrh,c
  1576   01F2A8  0E7A               	movlw	low hand5
  1577   01F2AA  6EF6               	movwf	tblptrl,c
  1578   01F2AC  C013  F036         	movff	len_hour,counter_display
  1579   01F2B0  ECAD  F0FB         	call	loop
  1580   01F2B4  0012               	return	
  1581   01F2B6                     display_hour6:
  1582   01F2B6  0E01               	movlw	low (hand6 shr (0+16))
  1583   01F2B8  6EF8               	movwf	tblptru,c
  1584   01F2BA  0ED0               	movlw	high hand6
  1585   01F2BC  6EF7               	movwf	tblptrh,c
  1586   01F2BE  0ED6               	movlw	low hand6
  1587   01F2C0  6EF6               	movwf	tblptrl,c
  1588   01F2C2  C013  F036         	movff	len_hour,counter_display
  1589   01F2C6  ECAD  F0FB         	call	loop
  1590   01F2CA  0012               	return	
  1591   01F2CC                     display_hour7:
  1592   01F2CC  0E01               	movlw	low (hand7 shr (0+16))
  1593   01F2CE  6EF8               	movwf	tblptru,c
  1594   01F2D0  0ED1               	movlw	high hand7
  1595   01F2D2  6EF7               	movwf	tblptrh,c
  1596   01F2D4  0E32               	movlw	low hand7
  1597   01F2D6  6EF6               	movwf	tblptrl,c
  1598   01F2D8  C013  F036         	movff	len_hour,counter_display
  1599   01F2DC  ECAD  F0FB         	call	loop
  1600   01F2E0  0012               	return	
  1601   01F2E2                     display_hour8:
  1602   01F2E2  0E01               	movlw	low (hand8 shr (0+16))
  1603   01F2E4  6EF8               	movwf	tblptru,c
  1604   01F2E6  0ED1               	movlw	high hand8
  1605   01F2E8  6EF7               	movwf	tblptrh,c
  1606   01F2EA  0E8E               	movlw	low hand8
  1607   01F2EC  6EF6               	movwf	tblptrl,c
  1608   01F2EE  C013  F036         	movff	len_hour,counter_display
  1609   01F2F2  ECAD  F0FB         	call	loop
  1610   01F2F6  0012               	return	
  1611   01F2F8                     display_hour9:
  1612   01F2F8  0E01               	movlw	low (hand9 shr (0+16))
  1613   01F2FA  6EF8               	movwf	tblptru,c
  1614   01F2FC  0ED1               	movlw	high hand9
  1615   01F2FE  6EF7               	movwf	tblptrh,c
  1616   01F300  0EEA               	movlw	low hand9
  1617   01F302  6EF6               	movwf	tblptrl,c
  1618   01F304  C013  F036         	movff	len_hour,counter_display
  1619   01F308  ECAD  F0FB         	call	loop
  1620   01F30C  0012               	return	
  1621   01F30E                     display_hour10:
  1622   01F30E  0E01               	movlw	low (hand10 shr (0+16))
  1623   01F310  6EF8               	movwf	tblptru,c
  1624   01F312  0ED2               	movlw	high hand10
  1625   01F314  6EF7               	movwf	tblptrh,c
  1626   01F316  0E46               	movlw	low hand10
  1627   01F318  6EF6               	movwf	tblptrl,c
  1628   01F31A  C013  F036         	movff	len_hour,counter_display
  1629   01F31E  ECAD  F0FB         	call	loop
  1630   01F322  0012               	return	
  1631   01F324                     display_hour11:
  1632   01F324  0E01               	movlw	low (hand11 shr (0+16))
  1633   01F326  6EF8               	movwf	tblptru,c
  1634   01F328  0ED2               	movlw	high hand11
  1635   01F32A  6EF7               	movwf	tblptrh,c
  1636   01F32C  0EA2               	movlw	low hand11
  1637   01F32E  6EF6               	movwf	tblptrl,c
  1638   01F330  C013  F036         	movff	len_hour,counter_display
  1639   01F334  ECAD  F0FB         	call	loop
  1640   01F338  0012               	return	
  1641   01F33A                     display_hour12:
  1642   01F33A  0E01               	movlw	low (hand12 shr (0+16))
  1643   01F33C  6EF8               	movwf	tblptru,c
  1644   01F33E  0ED2               	movlw	high hand12
  1645   01F340  6EF7               	movwf	tblptrh,c
  1646   01F342  0EFE               	movlw	low hand12
  1647   01F344  6EF6               	movwf	tblptrl,c
  1648   01F346  C013  F036         	movff	len_hour,counter_display
  1649   01F34A  ECAD  F0FB         	call	loop
  1650   01F34E  0012               	return	
  1651   01F350                     display_hour13:
  1652   01F350  0E01               	movlw	low (hand13 shr (0+16))
  1653   01F352  6EF8               	movwf	tblptru,c
  1654   01F354  0ED3               	movlw	high hand13
  1655   01F356  6EF7               	movwf	tblptrh,c
  1656   01F358  0E5A               	movlw	low hand13
  1657   01F35A  6EF6               	movwf	tblptrl,c
  1658   01F35C  C013  F036         	movff	len_hour,counter_display
  1659   01F360  ECAD  F0FB         	call	loop
  1660   01F364  0012               	return	
  1661   01F366                     display_hour14:
  1662   01F366  0E01               	movlw	low (hand14 shr (0+16))
  1663   01F368  6EF8               	movwf	tblptru,c
  1664   01F36A  0ED3               	movlw	high hand14
  1665   01F36C  6EF7               	movwf	tblptrh,c
  1666   01F36E  0EB6               	movlw	low hand14
  1667   01F370  6EF6               	movwf	tblptrl,c
  1668   01F372  C013  F036         	movff	len_hour,counter_display
  1669   01F376  ECAD  F0FB         	call	loop
  1670   01F37A  0012               	return	
  1671   01F37C                     display_hour15:
  1672   01F37C  0E01               	movlw	low (hand15 shr (0+16))
  1673   01F37E  6EF8               	movwf	tblptru,c
  1674   01F380  0ED4               	movlw	high hand15
  1675   01F382  6EF7               	movwf	tblptrh,c
  1676   01F384  0E12               	movlw	low hand15
  1677   01F386  6EF6               	movwf	tblptrl,c
  1678   01F388  C013  F036         	movff	len_hour,counter_display
  1679   01F38C  ECAD  F0FB         	call	loop
  1680   01F390  0012               	return	
  1681   01F392                     display_hour16:
  1682   01F392  0E01               	movlw	low (hand16 shr (0+16))
  1683   01F394  6EF8               	movwf	tblptru,c
  1684   01F396  0ED4               	movlw	high hand16
  1685   01F398  6EF7               	movwf	tblptrh,c
  1686   01F39A  0E6E               	movlw	low hand16
  1687   01F39C  6EF6               	movwf	tblptrl,c
  1688   01F39E  C013  F036         	movff	len_hour,counter_display
  1689   01F3A2  ECAD  F0FB         	call	loop
  1690   01F3A6  0012               	return	
  1691   01F3A8                     display_hour17:
  1692   01F3A8  0E01               	movlw	low (hand17 shr (0+16))
  1693   01F3AA  6EF8               	movwf	tblptru,c
  1694   01F3AC  0ED4               	movlw	high hand17
  1695   01F3AE  6EF7               	movwf	tblptrh,c
  1696   01F3B0  0ECA               	movlw	low hand17
  1697   01F3B2  6EF6               	movwf	tblptrl,c
  1698   01F3B4  C013  F036         	movff	len_hour,counter_display
  1699   01F3B8  ECAD  F0FB         	call	loop
  1700   01F3BC  0012               	return	
  1701   01F3BE                     display_hour18:
  1702   01F3BE  0E01               	movlw	low (hand18 shr (0+16))
  1703   01F3C0  6EF8               	movwf	tblptru,c
  1704   01F3C2  0ED5               	movlw	high hand18
  1705   01F3C4  6EF7               	movwf	tblptrh,c
  1706   01F3C6  0E26               	movlw	low hand18
  1707   01F3C8  6EF6               	movwf	tblptrl,c
  1708   01F3CA  C013  F036         	movff	len_hour,counter_display
  1709   01F3CE  ECAD  F0FB         	call	loop
  1710   01F3D2  0012               	return	
  1711   01F3D4                     display_hour19:
  1712   01F3D4  0E01               	movlw	low (hand19 shr (0+16))
  1713   01F3D6  6EF8               	movwf	tblptru,c
  1714   01F3D8  0ED5               	movlw	high hand19
  1715   01F3DA  6EF7               	movwf	tblptrh,c
  1716   01F3DC  0E82               	movlw	low hand19
  1717   01F3DE  6EF6               	movwf	tblptrl,c
  1718   01F3E0  C013  F036         	movff	len_hour,counter_display
  1719   01F3E4  ECAD  F0FB         	call	loop
  1720   01F3E8  0012               	return	
  1721   01F3EA                     display_hour20:
  1722   01F3EA  0E01               	movlw	low (hand20 shr (0+16))
  1723   01F3EC  6EF8               	movwf	tblptru,c
  1724   01F3EE  0ED5               	movlw	high hand20
  1725   01F3F0  6EF7               	movwf	tblptrh,c
  1726   01F3F2  0EDE               	movlw	low hand20
  1727   01F3F4  6EF6               	movwf	tblptrl,c
  1728   01F3F6  C013  F036         	movff	len_hour,counter_display
  1729   01F3FA  ECAD  F0FB         	call	loop
  1730   01F3FE  0012               	return	
  1731   01F400                     display_hour21:
  1732   01F400  0E01               	movlw	low (hand21 shr (0+16))
  1733   01F402  6EF8               	movwf	tblptru,c
  1734   01F404  0ED6               	movlw	high hand21
  1735   01F406  6EF7               	movwf	tblptrh,c
  1736   01F408  0E3A               	movlw	low hand21
  1737   01F40A  6EF6               	movwf	tblptrl,c
  1738   01F40C  C013  F036         	movff	len_hour,counter_display
  1739   01F410  ECAD  F0FB         	call	loop
  1740   01F414  0012               	return	
  1741   01F416                     display_hour22:
  1742   01F416  0E01               	movlw	low (hand22 shr (0+16))
  1743   01F418  6EF8               	movwf	tblptru,c
  1744   01F41A  0ED6               	movlw	high hand22
  1745   01F41C  6EF7               	movwf	tblptrh,c
  1746   01F41E  0E96               	movlw	low hand22
  1747   01F420  6EF6               	movwf	tblptrl,c
  1748   01F422  C013  F036         	movff	len_hour,counter_display
  1749   01F426  ECAD  F0FB         	call	loop
  1750   01F42A  0012               	return	
  1751   01F42C                     display_hour23:
  1752   01F42C  0E01               	movlw	low (hand23 shr (0+16))
  1753   01F42E  6EF8               	movwf	tblptru,c
  1754   01F430  0ED6               	movlw	high hand23
  1755   01F432  6EF7               	movwf	tblptrh,c
  1756   01F434  0EF2               	movlw	low hand23
  1757   01F436  6EF6               	movwf	tblptrl,c
  1758   01F438  C013  F036         	movff	len_hour,counter_display
  1759   01F43C  ECAD  F0FB         	call	loop
  1760   01F440  0012               	return	
  1761   01F442                     display_hour24:
  1762   01F442  0E01               	movlw	low (hand24 shr (0+16))
  1763   01F444  6EF8               	movwf	tblptru,c
  1764   01F446  0ED7               	movlw	high hand24
  1765   01F448  6EF7               	movwf	tblptrh,c
  1766   01F44A  0E4E               	movlw	low hand24
  1767   01F44C  6EF6               	movwf	tblptrl,c
  1768   01F44E  C013  F036         	movff	len_hour,counter_display
  1769   01F452  ECAD  F0FB         	call	loop
  1770   01F456  0012               	return	
  1771   01F458                     display_hour25:
  1772   01F458  0E01               	movlw	low (hand25 shr (0+16))
  1773   01F45A  6EF8               	movwf	tblptru,c
  1774   01F45C  0ED7               	movlw	high hand25
  1775   01F45E  6EF7               	movwf	tblptrh,c
  1776   01F460  0EAA               	movlw	low hand25
  1777   01F462  6EF6               	movwf	tblptrl,c
  1778   01F464  C013  F036         	movff	len_hour,counter_display
  1779   01F468  ECAD  F0FB         	call	loop
  1780   01F46C  0012               	return	
  1781   01F46E                     display_hour26:
  1782   01F46E  0E01               	movlw	low (hand26 shr (0+16))
  1783   01F470  6EF8               	movwf	tblptru,c
  1784   01F472  0ED8               	movlw	high hand26
  1785   01F474  6EF7               	movwf	tblptrh,c
  1786   01F476  0E06               	movlw	low hand26
  1787   01F478  6EF6               	movwf	tblptrl,c
  1788   01F47A  C013  F036         	movff	len_hour,counter_display
  1789   01F47E  ECAD  F0FB         	call	loop
  1790   01F482  0012               	return	
  1791   01F484                     display_hour27:
  1792   01F484  0E01               	movlw	low (hand27 shr (0+16))
  1793   01F486  6EF8               	movwf	tblptru,c
  1794   01F488  0ED8               	movlw	high hand27
  1795   01F48A  6EF7               	movwf	tblptrh,c
  1796   01F48C  0E62               	movlw	low hand27
  1797   01F48E  6EF6               	movwf	tblptrl,c
  1798   01F490  C013  F036         	movff	len_hour,counter_display
  1799   01F494  ECAD  F0FB         	call	loop
  1800   01F498  0012               	return	
  1801   01F49A                     display_hour28:
  1802   01F49A  0E01               	movlw	low (hand28 shr (0+16))
  1803   01F49C  6EF8               	movwf	tblptru,c
  1804   01F49E  0ED8               	movlw	high hand28
  1805   01F4A0  6EF7               	movwf	tblptrh,c
  1806   01F4A2  0EBE               	movlw	low hand28
  1807   01F4A4  6EF6               	movwf	tblptrl,c
  1808   01F4A6  C013  F036         	movff	len_hour,counter_display
  1809   01F4AA  ECAD  F0FB         	call	loop
  1810   01F4AE  0012               	return	
  1811   01F4B0                     display_hour29:
  1812   01F4B0  0E01               	movlw	low (hand29 shr (0+16))
  1813   01F4B2  6EF8               	movwf	tblptru,c
  1814   01F4B4  0ED9               	movlw	high hand29
  1815   01F4B6  6EF7               	movwf	tblptrh,c
  1816   01F4B8  0E1A               	movlw	low hand29
  1817   01F4BA  6EF6               	movwf	tblptrl,c
  1818   01F4BC  C013  F036         	movff	len_hour,counter_display
  1819   01F4C0  ECAD  F0FB         	call	loop
  1820   01F4C4  0012               	return	
  1821   01F4C6                     display_hour30:
  1822   01F4C6  0E01               	movlw	low (hand30 shr (0+16))
  1823   01F4C8  6EF8               	movwf	tblptru,c
  1824   01F4CA  0ED9               	movlw	high hand30
  1825   01F4CC  6EF7               	movwf	tblptrh,c
  1826   01F4CE  0E76               	movlw	low hand30
  1827   01F4D0  6EF6               	movwf	tblptrl,c
  1828   01F4D2  C013  F036         	movff	len_hour,counter_display
  1829   01F4D6  ECAD  F0FB         	call	loop
  1830   01F4DA  0012               	return	
  1831   01F4DC                     display_hour31:
  1832   01F4DC  0E01               	movlw	low (hand31 shr (0+16))
  1833   01F4DE  6EF8               	movwf	tblptru,c
  1834   01F4E0  0ED9               	movlw	high hand31
  1835   01F4E2  6EF7               	movwf	tblptrh,c
  1836   01F4E4  0ED2               	movlw	low hand31
  1837   01F4E6  6EF6               	movwf	tblptrl,c
  1838   01F4E8  C013  F036         	movff	len_hour,counter_display
  1839   01F4EC  ECAD  F0FB         	call	loop
  1840   01F4F0  0012               	return	
  1841   01F4F2                     display_hour32:
  1842   01F4F2  0E01               	movlw	low (hand32 shr (0+16))
  1843   01F4F4  6EF8               	movwf	tblptru,c
  1844   01F4F6  0EDA               	movlw	high hand32
  1845   01F4F8  6EF7               	movwf	tblptrh,c
  1846   01F4FA  0E2E               	movlw	low hand32
  1847   01F4FC  6EF6               	movwf	tblptrl,c
  1848   01F4FE  C013  F036         	movff	len_hour,counter_display
  1849   01F502  ECAD  F0FB         	call	loop
  1850   01F506  0012               	return	
  1851   01F508                     display_hour33:
  1852   01F508  0E01               	movlw	low (hand33 shr (0+16))
  1853   01F50A  6EF8               	movwf	tblptru,c
  1854   01F50C  0EDA               	movlw	high hand33
  1855   01F50E  6EF7               	movwf	tblptrh,c
  1856   01F510  0E8A               	movlw	low hand33
  1857   01F512  6EF6               	movwf	tblptrl,c
  1858   01F514  C013  F036         	movff	len_hour,counter_display
  1859   01F518  ECAD  F0FB         	call	loop
  1860   01F51C  0012               	return	
  1861   01F51E                     display_hour34:
  1862   01F51E  0E01               	movlw	low (hand34 shr (0+16))
  1863   01F520  6EF8               	movwf	tblptru,c
  1864   01F522  0EDA               	movlw	high hand34
  1865   01F524  6EF7               	movwf	tblptrh,c
  1866   01F526  0EE6               	movlw	low hand34
  1867   01F528  6EF6               	movwf	tblptrl,c
  1868   01F52A  C013  F036         	movff	len_hour,counter_display
  1869   01F52E  ECAD  F0FB         	call	loop
  1870   01F532  0012               	return	
  1871   01F534                     display_hour35:
  1872   01F534  0E01               	movlw	low (hand35 shr (0+16))
  1873   01F536  6EF8               	movwf	tblptru,c
  1874   01F538  0EDB               	movlw	high hand35
  1875   01F53A  6EF7               	movwf	tblptrh,c
  1876   01F53C  0E42               	movlw	low hand35
  1877   01F53E  6EF6               	movwf	tblptrl,c
  1878   01F540  C013  F036         	movff	len_hour,counter_display
  1879   01F544  ECAD  F0FB         	call	loop
  1880   01F548  0012               	return	
  1881   01F54A                     display_hour36:
  1882   01F54A  0E01               	movlw	low (hand36 shr (0+16))
  1883   01F54C  6EF8               	movwf	tblptru,c
  1884   01F54E  0EDB               	movlw	high hand36
  1885   01F550  6EF7               	movwf	tblptrh,c
  1886   01F552  0E9E               	movlw	low hand36
  1887   01F554  6EF6               	movwf	tblptrl,c
  1888   01F556  C013  F036         	movff	len_hour,counter_display
  1889   01F55A  ECAD  F0FB         	call	loop
  1890   01F55E  0012               	return	
  1891   01F560                     display_hour37:
  1892   01F560  0E01               	movlw	low (hand37 shr (0+16))
  1893   01F562  6EF8               	movwf	tblptru,c
  1894   01F564  0EDB               	movlw	high hand37
  1895   01F566  6EF7               	movwf	tblptrh,c
  1896   01F568  0EFA               	movlw	low hand37
  1897   01F56A  6EF6               	movwf	tblptrl,c
  1898   01F56C  C013  F036         	movff	len_hour,counter_display
  1899   01F570  ECAD  F0FB         	call	loop
  1900   01F574  0012               	return	
  1901   01F576                     display_hour38:
  1902   01F576  0E01               	movlw	low (hand38 shr (0+16))
  1903   01F578  6EF8               	movwf	tblptru,c
  1904   01F57A  0EDC               	movlw	high hand38
  1905   01F57C  6EF7               	movwf	tblptrh,c
  1906   01F57E  0E56               	movlw	low hand38
  1907   01F580  6EF6               	movwf	tblptrl,c
  1908   01F582  C013  F036         	movff	len_hour,counter_display
  1909   01F586  ECAD  F0FB         	call	loop
  1910   01F58A  0012               	return	
  1911   01F58C                     display_hour39:
  1912   01F58C  0E01               	movlw	low (hand39 shr (0+16))
  1913   01F58E  6EF8               	movwf	tblptru,c
  1914   01F590  0EDC               	movlw	high hand39
  1915   01F592  6EF7               	movwf	tblptrh,c
  1916   01F594  0EB2               	movlw	low hand39
  1917   01F596  6EF6               	movwf	tblptrl,c
  1918   01F598  C013  F036         	movff	len_hour,counter_display
  1919   01F59C  ECAD  F0FB         	call	loop
  1920   01F5A0  0012               	return	
  1921   01F5A2                     display_hour40:
  1922   01F5A2  0E01               	movlw	low (hand40 shr (0+16))
  1923   01F5A4  6EF8               	movwf	tblptru,c
  1924   01F5A6  0EDD               	movlw	high hand40
  1925   01F5A8  6EF7               	movwf	tblptrh,c
  1926   01F5AA  0E0E               	movlw	low hand40
  1927   01F5AC  6EF6               	movwf	tblptrl,c
  1928   01F5AE  C013  F036         	movff	len_hour,counter_display
  1929   01F5B2  ECAD  F0FB         	call	loop
  1930   01F5B6  0012               	return	
  1931   01F5B8                     display_hour41:
  1932   01F5B8  0E01               	movlw	low (hand41 shr (0+16))
  1933   01F5BA  6EF8               	movwf	tblptru,c
  1934   01F5BC  0EDD               	movlw	high hand41
  1935   01F5BE  6EF7               	movwf	tblptrh,c
  1936   01F5C0  0E6A               	movlw	low hand41
  1937   01F5C2  6EF6               	movwf	tblptrl,c
  1938   01F5C4  C013  F036         	movff	len_hour,counter_display
  1939   01F5C8  ECAD  F0FB         	call	loop
  1940   01F5CC  0012               	return	
  1941   01F5CE                     display_hour42:
  1942   01F5CE  0E01               	movlw	low (hand42 shr (0+16))
  1943   01F5D0  6EF8               	movwf	tblptru,c
  1944   01F5D2  0EDD               	movlw	high hand42
  1945   01F5D4  6EF7               	movwf	tblptrh,c
  1946   01F5D6  0EC6               	movlw	low hand42
  1947   01F5D8  6EF6               	movwf	tblptrl,c
  1948   01F5DA  C013  F036         	movff	len_hour,counter_display
  1949   01F5DE  ECAD  F0FB         	call	loop
  1950   01F5E2  0012               	return	
  1951   01F5E4                     display_hour43:
  1952   01F5E4  0E01               	movlw	low (hand43 shr (0+16))
  1953   01F5E6  6EF8               	movwf	tblptru,c
  1954   01F5E8  0EDE               	movlw	high hand43
  1955   01F5EA  6EF7               	movwf	tblptrh,c
  1956   01F5EC  0E22               	movlw	low hand43
  1957   01F5EE  6EF6               	movwf	tblptrl,c
  1958   01F5F0  C013  F036         	movff	len_hour,counter_display
  1959   01F5F4  ECAD  F0FB         	call	loop
  1960   01F5F8  0012               	return	
  1961   01F5FA                     display_hour44:
  1962   01F5FA  0E01               	movlw	low (hand44 shr (0+16))
  1963   01F5FC  6EF8               	movwf	tblptru,c
  1964   01F5FE  0EDE               	movlw	high hand44
  1965   01F600  6EF7               	movwf	tblptrh,c
  1966   01F602  0E7E               	movlw	low hand44
  1967   01F604  6EF6               	movwf	tblptrl,c
  1968   01F606  C013  F036         	movff	len_hour,counter_display
  1969   01F60A  ECAD  F0FB         	call	loop
  1970   01F60E  0012               	return	
  1971   01F610                     display_hour45:
  1972   01F610  0E01               	movlw	low (hand45 shr (0+16))
  1973   01F612  6EF8               	movwf	tblptru,c
  1974   01F614  0EDE               	movlw	high hand45
  1975   01F616  6EF7               	movwf	tblptrh,c
  1976   01F618  0EDA               	movlw	low hand45
  1977   01F61A  6EF6               	movwf	tblptrl,c
  1978   01F61C  C013  F036         	movff	len_hour,counter_display
  1979   01F620  ECAD  F0FB         	call	loop
  1980   01F624  0012               	return	
  1981   01F626                     display_hour46:
  1982   01F626  0E01               	movlw	low (hand46 shr (0+16))
  1983   01F628  6EF8               	movwf	tblptru,c
  1984   01F62A  0EDF               	movlw	high hand46
  1985   01F62C  6EF7               	movwf	tblptrh,c
  1986   01F62E  0E36               	movlw	low hand46
  1987   01F630  6EF6               	movwf	tblptrl,c
  1988   01F632  C013  F036         	movff	len_hour,counter_display
  1989   01F636  ECAD  F0FB         	call	loop
  1990   01F63A  0012               	return	
  1991   01F63C                     display_hour47:
  1992   01F63C  0E01               	movlw	low (hand47 shr (0+16))
  1993   01F63E  6EF8               	movwf	tblptru,c
  1994   01F640  0EDF               	movlw	high hand47
  1995   01F642  6EF7               	movwf	tblptrh,c
  1996   01F644  0E92               	movlw	low hand47
  1997   01F646  6EF6               	movwf	tblptrl,c
  1998   01F648  C013  F036         	movff	len_hour,counter_display
  1999   01F64C  ECAD  F0FB         	call	loop
  2000   01F650  0012               	return	
  2001   01F652                     display_hour48:
  2002   01F652  0E01               	movlw	low (hand48 shr (0+16))
  2003   01F654  6EF8               	movwf	tblptru,c
  2004   01F656  0EDF               	movlw	high hand48
  2005   01F658  6EF7               	movwf	tblptrh,c
  2006   01F65A  0EEE               	movlw	low hand48
  2007   01F65C  6EF6               	movwf	tblptrl,c
  2008   01F65E  C013  F036         	movff	len_hour,counter_display
  2009   01F662  ECAD  F0FB         	call	loop
  2010   01F666  0012               	return	
  2011   01F668                     display_hour49:
  2012   01F668  0E01               	movlw	low (hand49 shr (0+16))
  2013   01F66A  6EF8               	movwf	tblptru,c
  2014   01F66C  0EE0               	movlw	high hand49
  2015   01F66E  6EF7               	movwf	tblptrh,c
  2016   01F670  0E4A               	movlw	low hand49
  2017   01F672  6EF6               	movwf	tblptrl,c
  2018   01F674  C013  F036         	movff	len_hour,counter_display
  2019   01F678  ECAD  F0FB         	call	loop
  2020   01F67C  0012               	return	
  2021   01F67E                     display_hour50:
  2022   01F67E  0E01               	movlw	low (hand50 shr (0+16))
  2023   01F680  6EF8               	movwf	tblptru,c
  2024   01F682  0EE0               	movlw	high hand50
  2025   01F684  6EF7               	movwf	tblptrh,c
  2026   01F686  0EA6               	movlw	low hand50
  2027   01F688  6EF6               	movwf	tblptrl,c
  2028   01F68A  C013  F036         	movff	len_hour,counter_display
  2029   01F68E  ECAD  F0FB         	call	loop
  2030   01F692  0012               	return	
  2031   01F694                     display_hour51:
  2032   01F694  0E01               	movlw	low (hand51 shr (0+16))
  2033   01F696  6EF8               	movwf	tblptru,c
  2034   01F698  0EE1               	movlw	high hand51
  2035   01F69A  6EF7               	movwf	tblptrh,c
  2036   01F69C  0E02               	movlw	low hand51
  2037   01F69E  6EF6               	movwf	tblptrl,c
  2038   01F6A0  C013  F036         	movff	len_hour,counter_display
  2039   01F6A4  ECAD  F0FB         	call	loop
  2040   01F6A8  0012               	return	
  2041   01F6AA                     display_hour52:
  2042   01F6AA  0E01               	movlw	low (hand52 shr (0+16))
  2043   01F6AC  6EF8               	movwf	tblptru,c
  2044   01F6AE  0EE1               	movlw	high hand52
  2045   01F6B0  6EF7               	movwf	tblptrh,c
  2046   01F6B2  0E5E               	movlw	low hand52
  2047   01F6B4  6EF6               	movwf	tblptrl,c
  2048   01F6B6  C013  F036         	movff	len_hour,counter_display
  2049   01F6BA  ECAD  F0FB         	call	loop
  2050   01F6BE  0012               	return	
  2051   01F6C0                     display_hour53:
  2052   01F6C0  0E01               	movlw	low (hand53 shr (0+16))
  2053   01F6C2  6EF8               	movwf	tblptru,c
  2054   01F6C4  0EE1               	movlw	high hand53
  2055   01F6C6  6EF7               	movwf	tblptrh,c
  2056   01F6C8  0EBA               	movlw	low hand53
  2057   01F6CA  6EF6               	movwf	tblptrl,c
  2058   01F6CC  C013  F036         	movff	len_hour,counter_display
  2059   01F6D0  ECAD  F0FB         	call	loop
  2060   01F6D4  0012               	return	
  2061   01F6D6                     display_hour54:
  2062   01F6D6  0E01               	movlw	low (hand54 shr (0+16))
  2063   01F6D8  6EF8               	movwf	tblptru,c
  2064   01F6DA  0EE2               	movlw	high hand54
  2065   01F6DC  6EF7               	movwf	tblptrh,c
  2066   01F6DE  0E16               	movlw	low hand54
  2067   01F6E0  6EF6               	movwf	tblptrl,c
  2068   01F6E2  C013  F036         	movff	len_hour,counter_display
  2069   01F6E6  ECAD  F0FB         	call	loop
  2070   01F6EA  0012               	return	
  2071   01F6EC                     display_hour55:
  2072   01F6EC  0E01               	movlw	low (hand55 shr (0+16))
  2073   01F6EE  6EF8               	movwf	tblptru,c
  2074   01F6F0  0EE2               	movlw	high hand55
  2075   01F6F2  6EF7               	movwf	tblptrh,c
  2076   01F6F4  0E72               	movlw	low hand55
  2077   01F6F6  6EF6               	movwf	tblptrl,c
  2078   01F6F8  C013  F036         	movff	len_hour,counter_display
  2079   01F6FC  ECAD  F0FB         	call	loop
  2080   01F700  0012               	return	
  2081   01F702                     display_hour56:
  2082   01F702  0E01               	movlw	low (hand56 shr (0+16))
  2083   01F704  6EF8               	movwf	tblptru,c
  2084   01F706  0EE2               	movlw	high hand56
  2085   01F708  6EF7               	movwf	tblptrh,c
  2086   01F70A  0ECE               	movlw	low hand56
  2087   01F70C  6EF6               	movwf	tblptrl,c
  2088   01F70E  C013  F036         	movff	len_hour,counter_display
  2089   01F712  ECAD  F0FB         	call	loop
  2090   01F716  0012               	return	
  2091   01F718                     display_hour57:
  2092   01F718  0E01               	movlw	low (hand57 shr (0+16))
  2093   01F71A  6EF8               	movwf	tblptru,c
  2094   01F71C  0EE3               	movlw	high hand57
  2095   01F71E  6EF7               	movwf	tblptrh,c
  2096   01F720  0E2A               	movlw	low hand57
  2097   01F722  6EF6               	movwf	tblptrl,c
  2098   01F724  C013  F036         	movff	len_hour,counter_display
  2099   01F728  ECAD  F0FB         	call	loop
  2100   01F72C  0012               	return	
  2101   01F72E                     display_hour58:
  2102   01F72E  0E01               	movlw	low (hand58 shr (0+16))
  2103   01F730  6EF8               	movwf	tblptru,c
  2104   01F732  0EE3               	movlw	high hand58
  2105   01F734  6EF7               	movwf	tblptrh,c
  2106   01F736  0E86               	movlw	low hand58
  2107   01F738  6EF6               	movwf	tblptrl,c
  2108   01F73A  C013  F036         	movff	len_hour,counter_display
  2109   01F73E  ECAD  F0FB         	call	loop
  2110   01F742  0012               	return	
  2111   01F744                     display_hour59:
  2112   01F744  0E01               	movlw	low (hand59 shr (0+16))
  2113   01F746  6EF8               	movwf	tblptru,c
  2114   01F748  0EE3               	movlw	high hand59
  2115   01F74A  6EF7               	movwf	tblptrh,c
  2116   01F74C  0EE2               	movlw	low hand59
  2117   01F74E  6EF6               	movwf	tblptrl,c
  2118   01F750  C013  F036         	movff	len_hour,counter_display
  2119   01F754  ECAD  F0FB         	call	loop
  2120   01F758  0012               	return	
  2121   01F75A                     loop:
  2122   01F75A  0009               	tblrd		*+	; move one byte from PM to TABLAT, increment TBLPRT
  2123   01F75C  CFF5 FF82          	movff	tablat,3970	; move read data from TABLAT to (FSR0), increment FSR0
  2124   01F760  2E36               	decfsz	counter_display,f,c	; count down to zero
  2125   01F762  0009               	tblrd		*+	; move one byte from PM to TABLAT, increment TBLPRT
  2126   01F764  CFF5 FF83          	movff	tablat,3971	; move read data from TABLAT to (FSR0), increment FSR0
  2127   01F768  2E36               	decfsz	counter_display,f,c	; count down to zero
  2128   01F76A  D7F7               	bra	loop
  2129   01F76C  0012               	return	
  2130   01F76E                     loop_delay:
  2131   01F76E  ECAF  F0E2         	call	delay
  2132   01F772  0009               	tblrd		*+	; move one byte from PM to TABLAT, increment TBLPRT
  2133   01F774  CFF5 FF82          	movff	tablat,3970	; move read data from TABLAT to (FSR0), increment FSR0
  2134   01F778  2E36               	decfsz	counter_display,f,c	; count down to zero
  2135   01F77A  0009               	tblrd		*+	; move one byte from PM to TABLAT, increment TBLPRT
  2136   01F77C  CFF5 FF83          	movff	tablat,3971	; move read data from TABLAT to (FSR0), increment FSR0
  2137   01F780  2E36               	decfsz	counter_display,f,c	; count down to zero
  2138   01F782  D7F5               	bra	loop_delay
  2139   01F784  0012               	return	
  2140   01F786                     loop_alarm:
  2141   01F786  0009               	tblrd		*+	; move one byte from PM to TABLAT, increment TBLPRT
  2142   01F788  CFF5 FF87          	movff	tablat,3975	; move read data from TABLAT to (FSR0), increment FSR0
  2143   01F78C  2E36               	decfsz	counter_display,f,c	; count down to zero
  2144   01F78E  0012               	return	
  2145   01F790                     check_second0:
  2146   01F790  0E00               	movlw	0
  2147   01F792  6327               	cpfseq	second,b
  2148   01F794  0012               	return	
  2149   01F796  EFF1  F0F3         	goto	display_second0
  2150   01F79A  0012               	return	
  2151   01F79C                     check_second1:
  2152   01F79C  0E01               	movlw	1
  2153   01F79E  6327               	cpfseq	second,b
  2154   01F7A0  0012               	return	
  2155   01F7A2  EFFC  F0F3         	goto	display_second1
  2156   01F7A6  0012               	return	
  2157   01F7A8                     check_second2:
  2158   01F7A8  0E02               	movlw	2
  2159   01F7AA  6327               	cpfseq	second,b
  2160   01F7AC  0012               	return	
  2161   01F7AE  EF07  F0F4         	goto	display_second2
  2162   01F7B2  0012               	return	
  2163   01F7B4                     check_second3:
  2164   01F7B4  0E03               	movlw	3
  2165   01F7B6  6327               	cpfseq	second,b
  2166   01F7B8  0012               	return	
  2167   01F7BA  EF12  F0F4         	goto	display_second3
  2168   01F7BE  0012               	return	
  2169   01F7C0                     check_second4:
  2170   01F7C0  0E04               	movlw	4
  2171   01F7C2  6327               	cpfseq	second,b
  2172   01F7C4  0012               	return	
  2173   01F7C6  EF1D  F0F4         	goto	display_second4
  2174   01F7CA  0012               	return	
  2175   01F7CC                     check_second5:
  2176   01F7CC  0E05               	movlw	5
  2177   01F7CE  6327               	cpfseq	second,b
  2178   01F7D0  0012               	return	
  2179   01F7D2  EF28  F0F4         	goto	display_second5
  2180   01F7D6  0012               	return	
  2181   01F7D8                     check_second6:
  2182   01F7D8  0E06               	movlw	6
  2183   01F7DA  6327               	cpfseq	second,b
  2184   01F7DC  0012               	return	
  2185   01F7DE  EF33  F0F4         	goto	display_second6
  2186   01F7E2  0012               	return	
  2187   01F7E4                     check_second7:
  2188   01F7E4  0E07               	movlw	7
  2189   01F7E6  6327               	cpfseq	second,b
  2190   01F7E8  0012               	return	
  2191   01F7EA  EF3E  F0F4         	goto	display_second7
  2192   01F7EE  0012               	return	
  2193   01F7F0                     check_second8:
  2194   01F7F0  0E08               	movlw	8
  2195   01F7F2  6327               	cpfseq	second,b
  2196   01F7F4  0012               	return	
  2197   01F7F6  EF49  F0F4         	goto	display_second8
  2198   01F7FA  0012               	return	
  2199   01F7FC                     check_second9:
  2200   01F7FC  0E09               	movlw	9
  2201   01F7FE  6327               	cpfseq	second,b
  2202   01F800  0012               	return	
  2203   01F802  EF54  F0F4         	goto	display_second9
  2204   01F806  0012               	return	
  2205   01F808                     check_second10:
  2206   01F808  0E0A               	movlw	10
  2207   01F80A  6327               	cpfseq	second,b
  2208   01F80C  0012               	return	
  2209   01F80E  EF5F  F0F4         	goto	display_second10
  2210   01F812  0012               	return	
  2211   01F814                     check_second11:
  2212   01F814  0E0B               	movlw	11
  2213   01F816  6327               	cpfseq	second,b
  2214   01F818  0012               	return	
  2215   01F81A  EF6A  F0F4         	goto	display_second11
  2216   01F81E  0012               	return	
  2217   01F820                     check_second12:
  2218   01F820  0E0C               	movlw	12
  2219   01F822  6327               	cpfseq	second,b
  2220   01F824  0012               	return	
  2221   01F826  EF75  F0F4         	goto	display_second12
  2222   01F82A  0012               	return	
  2223   01F82C                     check_second13:
  2224   01F82C  0E0D               	movlw	13
  2225   01F82E  6327               	cpfseq	second,b
  2226   01F830  0012               	return	
  2227   01F832  EF80  F0F4         	goto	display_second13
  2228   01F836  0012               	return	
  2229   01F838                     check_second14:
  2230   01F838  0E0E               	movlw	14
  2231   01F83A  6327               	cpfseq	second,b
  2232   01F83C  0012               	return	
  2233   01F83E  EF8B  F0F4         	goto	display_second14
  2234   01F842  0012               	return	
  2235   01F844                     check_second15:
  2236   01F844  0E0F               	movlw	15
  2237   01F846  6327               	cpfseq	second,b
  2238   01F848  0012               	return	
  2239   01F84A  EF96  F0F4         	goto	display_second15
  2240   01F84E  0012               	return	
  2241   01F850                     check_second16:
  2242   01F850  0E10               	movlw	16
  2243   01F852  6327               	cpfseq	second,b
  2244   01F854  0012               	return	
  2245   01F856  EFA1  F0F4         	goto	display_second16
  2246   01F85A  0012               	return	
  2247   01F85C                     check_second17:
  2248   01F85C  0E11               	movlw	17
  2249   01F85E  6327               	cpfseq	second,b
  2250   01F860  0012               	return	
  2251   01F862  EFAC  F0F4         	goto	display_second17
  2252   01F866  0012               	return	
  2253   01F868                     check_second18:
  2254   01F868  0E12               	movlw	18
  2255   01F86A  6327               	cpfseq	second,b
  2256   01F86C  0012               	return	
  2257   01F86E  EFB7  F0F4         	goto	display_second18
  2258   01F872  0012               	return	
  2259   01F874                     check_second19:
  2260   01F874  0E13               	movlw	19
  2261   01F876  6327               	cpfseq	second,b
  2262   01F878  0012               	return	
  2263   01F87A  EFC2  F0F4         	goto	display_second19
  2264   01F87E  0012               	return	
  2265   01F880                     check_second20:
  2266   01F880  0E14               	movlw	20
  2267   01F882  6327               	cpfseq	second,b
  2268   01F884  0012               	return	
  2269   01F886  EFCD  F0F4         	goto	display_second20
  2270   01F88A  0012               	return	
  2271   01F88C                     check_second21:
  2272   01F88C  0E15               	movlw	21
  2273   01F88E  6327               	cpfseq	second,b
  2274   01F890  0012               	return	
  2275   01F892  EFD8  F0F4         	goto	display_second21
  2276   01F896  0012               	return	
  2277   01F898                     check_second22:
  2278   01F898  0E16               	movlw	22
  2279   01F89A  6327               	cpfseq	second,b
  2280   01F89C  0012               	return	
  2281   01F89E  EFE3  F0F4         	goto	display_second22
  2282   01F8A2  0012               	return	
  2283   01F8A4                     check_second23:
  2284   01F8A4  0E17               	movlw	23
  2285   01F8A6  6327               	cpfseq	second,b
  2286   01F8A8  0012               	return	
  2287   01F8AA  EFEE  F0F4         	goto	display_second23
  2288   01F8AE  0012               	return	
  2289   01F8B0                     check_second24:
  2290   01F8B0  0E18               	movlw	24
  2291   01F8B2  6327               	cpfseq	second,b
  2292   01F8B4  0012               	return	
  2293   01F8B6  EFF9  F0F4         	goto	display_second24
  2294   01F8BA  0012               	return	
  2295   01F8BC                     check_second25:
  2296   01F8BC  0E19               	movlw	25
  2297   01F8BE  6327               	cpfseq	second,b
  2298   01F8C0  0012               	return	
  2299   01F8C2  EF04  F0F5         	goto	display_second25
  2300   01F8C6  0012               	return	
  2301   01F8C8                     check_second26:
  2302   01F8C8  0E1A               	movlw	26
  2303   01F8CA  6327               	cpfseq	second,b
  2304   01F8CC  0012               	return	
  2305   01F8CE  EF0F  F0F5         	goto	display_second26
  2306   01F8D2  0012               	return	
  2307   01F8D4                     check_second27:
  2308   01F8D4  0E1B               	movlw	27
  2309   01F8D6  6327               	cpfseq	second,b
  2310   01F8D8  0012               	return	
  2311   01F8DA  EF1A  F0F5         	goto	display_second27
  2312   01F8DE  0012               	return	
  2313   01F8E0                     check_second28:
  2314   01F8E0  0E1C               	movlw	28
  2315   01F8E2  6327               	cpfseq	second,b
  2316   01F8E4  0012               	return	
  2317   01F8E6  EF25  F0F5         	goto	display_second28
  2318   01F8EA  0012               	return	
  2319   01F8EC                     check_second29:
  2320   01F8EC  0E1D               	movlw	29
  2321   01F8EE  6327               	cpfseq	second,b
  2322   01F8F0  0012               	return	
  2323   01F8F2  EF30  F0F5         	goto	display_second29
  2324   01F8F6  0012               	return	
  2325   01F8F8                     check_second30:
  2326   01F8F8  0E1E               	movlw	30
  2327   01F8FA  6327               	cpfseq	second,b
  2328   01F8FC  0012               	return	
  2329   01F8FE  EF3B  F0F5         	goto	display_second30
  2330   01F902  0012               	return	
  2331   01F904                     check_second31:
  2332   01F904  0E1F               	movlw	31
  2333   01F906  6327               	cpfseq	second,b
  2334   01F908  0012               	return	
  2335   01F90A  EF46  F0F5         	goto	display_second31
  2336   01F90E  0012               	return	
  2337   01F910                     check_second32:
  2338   01F910  0E20               	movlw	32
  2339   01F912  6327               	cpfseq	second,b
  2340   01F914  0012               	return	
  2341   01F916  EF51  F0F5         	goto	display_second32
  2342   01F91A  0012               	return	
  2343   01F91C                     check_second33:
  2344   01F91C  0E21               	movlw	33
  2345   01F91E  6327               	cpfseq	second,b
  2346   01F920  0012               	return	
  2347   01F922  EF5C  F0F5         	goto	display_second33
  2348   01F926  0012               	return	
  2349   01F928                     check_second34:
  2350   01F928  0E22               	movlw	34
  2351   01F92A  6327               	cpfseq	second,b
  2352   01F92C  0012               	return	
  2353   01F92E  EF67  F0F5         	goto	display_second34
  2354   01F932  0012               	return	
  2355   01F934                     check_second35:
  2356   01F934  0E23               	movlw	35
  2357   01F936  6327               	cpfseq	second,b
  2358   01F938  0012               	return	
  2359   01F93A  EF72  F0F5         	goto	display_second35
  2360   01F93E  0012               	return	
  2361   01F940                     check_second36:
  2362   01F940  0E24               	movlw	36
  2363   01F942  6327               	cpfseq	second,b
  2364   01F944  0012               	return	
  2365   01F946  EF7D  F0F5         	goto	display_second36
  2366   01F94A  0012               	return	
  2367   01F94C                     check_second37:
  2368   01F94C  0E25               	movlw	37
  2369   01F94E  6327               	cpfseq	second,b
  2370   01F950  0012               	return	
  2371   01F952  EF88  F0F5         	goto	display_second37
  2372   01F956  0012               	return	
  2373   01F958                     check_second38:
  2374   01F958  0E26               	movlw	38
  2375   01F95A  6327               	cpfseq	second,b
  2376   01F95C  0012               	return	
  2377   01F95E  EF93  F0F5         	goto	display_second38
  2378   01F962  0012               	return	
  2379   01F964                     check_second39:
  2380   01F964  0E27               	movlw	39
  2381   01F966  6327               	cpfseq	second,b
  2382   01F968  0012               	return	
  2383   01F96A  EF9E  F0F5         	goto	display_second39
  2384   01F96E  0012               	return	
  2385   01F970                     check_second40:
  2386   01F970  0E28               	movlw	40
  2387   01F972  6327               	cpfseq	second,b
  2388   01F974  0012               	return	
  2389   01F976  EFA9  F0F5         	goto	display_second40
  2390   01F97A  0012               	return	
  2391   01F97C                     check_second41:
  2392   01F97C  0E29               	movlw	41
  2393   01F97E  6327               	cpfseq	second,b
  2394   01F980  0012               	return	
  2395   01F982  EFB4  F0F5         	goto	display_second41
  2396   01F986  0012               	return	
  2397   01F988                     check_second42:
  2398   01F988  0E2A               	movlw	42
  2399   01F98A  6327               	cpfseq	second,b
  2400   01F98C  0012               	return	
  2401   01F98E  EFBF  F0F5         	goto	display_second42
  2402   01F992  0012               	return	
  2403   01F994                     check_second43:
  2404   01F994  0E2B               	movlw	43
  2405   01F996  6327               	cpfseq	second,b
  2406   01F998  0012               	return	
  2407   01F99A  EFCA  F0F5         	goto	display_second43
  2408   01F99E  0012               	return	
  2409   01F9A0                     check_second44:
  2410   01F9A0  0E2C               	movlw	44
  2411   01F9A2  6327               	cpfseq	second,b
  2412   01F9A4  0012               	return	
  2413   01F9A6  EFD5  F0F5         	goto	display_second44
  2414   01F9AA  0012               	return	
  2415   01F9AC                     check_second45:
  2416   01F9AC  0E2D               	movlw	45
  2417   01F9AE  6327               	cpfseq	second,b
  2418   01F9B0  0012               	return	
  2419   01F9B2  EFE0  F0F5         	goto	display_second45
  2420   01F9B6  0012               	return	
  2421   01F9B8                     check_second46:
  2422   01F9B8  0E2E               	movlw	46
  2423   01F9BA  6327               	cpfseq	second,b
  2424   01F9BC  0012               	return	
  2425   01F9BE  EFEB  F0F5         	goto	display_second46
  2426   01F9C2  0012               	return	
  2427   01F9C4                     check_second47:
  2428   01F9C4  0E2F               	movlw	47
  2429   01F9C6  6327               	cpfseq	second,b
  2430   01F9C8  0012               	return	
  2431   01F9CA  EFF6  F0F5         	goto	display_second47
  2432   01F9CE  0012               	return	
  2433   01F9D0                     check_second48:
  2434   01F9D0  0E30               	movlw	48
  2435   01F9D2  6327               	cpfseq	second,b
  2436   01F9D4  0012               	return	
  2437   01F9D6  EF01  F0F6         	goto	display_second48
  2438   01F9DA  0012               	return	
  2439   01F9DC                     check_second49:
  2440   01F9DC  0E31               	movlw	49
  2441   01F9DE  6327               	cpfseq	second,b
  2442   01F9E0  0012               	return	
  2443   01F9E2  EF0C  F0F6         	goto	display_second49
  2444   01F9E6  0012               	return	
  2445   01F9E8                     check_second50:
  2446   01F9E8  0E32               	movlw	50
  2447   01F9EA  6327               	cpfseq	second,b
  2448   01F9EC  0012               	return	
  2449   01F9EE  EF17  F0F6         	goto	display_second50
  2450   01F9F2  0012               	return	
  2451   01F9F4                     check_second51:
  2452   01F9F4  0E33               	movlw	51
  2453   01F9F6  6327               	cpfseq	second,b
  2454   01F9F8  0012               	return	
  2455   01F9FA  EF22  F0F6         	goto	display_second51
  2456   01F9FE  0012               	return	
  2457   01FA00                     check_second52:
  2458   01FA00  0E34               	movlw	52
  2459   01FA02  6327               	cpfseq	second,b
  2460   01FA04  0012               	return	
  2461   01FA06  EF2D  F0F6         	goto	display_second52
  2462   01FA0A  0012               	return	
  2463   01FA0C                     check_second53:
  2464   01FA0C  0E35               	movlw	53
  2465   01FA0E  6327               	cpfseq	second,b
  2466   01FA10  0012               	return	
  2467   01FA12  EF38  F0F6         	goto	display_second53
  2468   01FA16  0012               	return	
  2469   01FA18                     check_second54:
  2470   01FA18  0E36               	movlw	54
  2471   01FA1A  6327               	cpfseq	second,b
  2472   01FA1C  0012               	return	
  2473   01FA1E  EF43  F0F6         	goto	display_second54
  2474   01FA22  0012               	return	
  2475   01FA24                     check_second55:
  2476   01FA24  0E37               	movlw	55
  2477   01FA26  6327               	cpfseq	second,b
  2478   01FA28  0012               	return	
  2479   01FA2A  EF4E  F0F6         	goto	display_second55
  2480   01FA2E  0012               	return	
  2481   01FA30                     check_second56:
  2482   01FA30  0E38               	movlw	56
  2483   01FA32  6327               	cpfseq	second,b
  2484   01FA34  0012               	return	
  2485   01FA36  EF59  F0F6         	goto	display_second56
  2486   01FA3A  0012               	return	
  2487   01FA3C                     check_second57:
  2488   01FA3C  0E39               	movlw	57
  2489   01FA3E  6327               	cpfseq	second,b
  2490   01FA40  0012               	return	
  2491   01FA42  EF64  F0F6         	goto	display_second57
  2492   01FA46  0012               	return	
  2493   01FA48                     check_second58:
  2494   01FA48  0E3A               	movlw	58
  2495   01FA4A  6327               	cpfseq	second,b
  2496   01FA4C  0012               	return	
  2497   01FA4E  EF6F  F0F6         	goto	display_second58
  2498   01FA52  0012               	return	
  2499   01FA54                     check_second59:
  2500   01FA54  0E3B               	movlw	59
  2501   01FA56  6327               	cpfseq	second,b
  2502   01FA58  0012               	return	
  2503   01FA5A  EF7A  F0F6         	goto	display_second59
  2504   01FA5E  0012               	return	
  2505   01FA60                     check_minute0:
  2506   01FA60  0E00               	movlw	0
  2507   01FA62  6328               	cpfseq	minute,b
  2508   01FA64  0012               	return	
  2509   01FA66  EF85  F0F6         	goto	display_minute0
  2510   01FA6A  0012               	return	
  2511   01FA6C                     check_minute1:
  2512   01FA6C  0E01               	movlw	1
  2513   01FA6E  6328               	cpfseq	minute,b
  2514   01FA70  0012               	return	
  2515   01FA72  EF90  F0F6         	goto	display_minute1
  2516   01FA76  0012               	return	
  2517   01FA78                     check_minute2:
  2518   01FA78  0E02               	movlw	2
  2519   01FA7A  6328               	cpfseq	minute,b
  2520   01FA7C  0012               	return	
  2521   01FA7E  EF9B  F0F6         	goto	display_minute2
  2522   01FA82  0012               	return	
  2523   01FA84                     check_minute3:
  2524   01FA84  0E03               	movlw	3
  2525   01FA86  6328               	cpfseq	minute,b
  2526   01FA88  0012               	return	
  2527   01FA8A  EFA6  F0F6         	goto	display_minute3
  2528   01FA8E  0012               	return	
  2529   01FA90                     check_minute4:
  2530   01FA90  0E04               	movlw	4
  2531   01FA92  6328               	cpfseq	minute,b
  2532   01FA94  0012               	return	
  2533   01FA96  EFB1  F0F6         	goto	display_minute4
  2534   01FA9A  0012               	return	
  2535   01FA9C                     check_minute5:
  2536   01FA9C  0E05               	movlw	5
  2537   01FA9E  6328               	cpfseq	minute,b
  2538   01FAA0  0012               	return	
  2539   01FAA2  EFBC  F0F6         	goto	display_minute5
  2540   01FAA6  0012               	return	
  2541   01FAA8                     check_minute6:
  2542   01FAA8  0E06               	movlw	6
  2543   01FAAA  6328               	cpfseq	minute,b
  2544   01FAAC  0012               	return	
  2545   01FAAE  EFC7  F0F6         	goto	display_minute6
  2546   01FAB2  0012               	return	
  2547   01FAB4                     check_minute7:
  2548   01FAB4  0E07               	movlw	7
  2549   01FAB6  6328               	cpfseq	minute,b
  2550   01FAB8  0012               	return	
  2551   01FABA  EFD2  F0F6         	goto	display_minute7
  2552   01FABE  0012               	return	
  2553   01FAC0                     check_minute8:
  2554   01FAC0  0E08               	movlw	8
  2555   01FAC2  6328               	cpfseq	minute,b
  2556   01FAC4  0012               	return	
  2557   01FAC6  EFDD  F0F6         	goto	display_minute8
  2558   01FACA  0012               	return	
  2559   01FACC                     check_minute9:
  2560   01FACC  0E09               	movlw	9
  2561   01FACE  6328               	cpfseq	minute,b
  2562   01FAD0  0012               	return	
  2563   01FAD2  EFE8  F0F6         	goto	display_minute9
  2564   01FAD6  0012               	return	
  2565   01FAD8                     check_minute10:
  2566   01FAD8  0E0A               	movlw	10
  2567   01FADA  6328               	cpfseq	minute,b
  2568   01FADC  0012               	return	
  2569   01FADE  EFF3  F0F6         	goto	display_minute10
  2570   01FAE2  0012               	return	
  2571   01FAE4                     check_minute11:
  2572   01FAE4  0E0B               	movlw	11
  2573   01FAE6  6328               	cpfseq	minute,b
  2574   01FAE8  0012               	return	
  2575   01FAEA  EFFE  F0F6         	goto	display_minute11
  2576   01FAEE  0012               	return	
  2577   01FAF0                     check_minute12:
  2578   01FAF0  0E0C               	movlw	12
  2579   01FAF2  6328               	cpfseq	minute,b
  2580   01FAF4  0012               	return	
  2581   01FAF6  EF09  F0F7         	goto	display_minute12
  2582   01FAFA  0012               	return	
  2583   01FAFC                     check_minute13:
  2584   01FAFC  0E0D               	movlw	13
  2585   01FAFE  6328               	cpfseq	minute,b
  2586   01FB00  0012               	return	
  2587   01FB02  EF14  F0F7         	goto	display_minute13
  2588   01FB06  0012               	return	
  2589   01FB08                     check_minute14:
  2590   01FB08  0E0E               	movlw	14
  2591   01FB0A  6328               	cpfseq	minute,b
  2592   01FB0C  0012               	return	
  2593   01FB0E  EF1F  F0F7         	goto	display_minute14
  2594   01FB12  0012               	return	
  2595   01FB14                     check_minute15:
  2596   01FB14  0E0F               	movlw	15
  2597   01FB16  6328               	cpfseq	minute,b
  2598   01FB18  0012               	return	
  2599   01FB1A  EF2A  F0F7         	goto	display_minute15
  2600   01FB1E  0012               	return	
  2601   01FB20                     check_minute16:
  2602   01FB20  0E10               	movlw	16
  2603   01FB22  6328               	cpfseq	minute,b
  2604   01FB24  0012               	return	
  2605   01FB26  EF35  F0F7         	goto	display_minute16
  2606   01FB2A  0012               	return	
  2607   01FB2C                     check_minute17:
  2608   01FB2C  0E11               	movlw	17
  2609   01FB2E  6328               	cpfseq	minute,b
  2610   01FB30  0012               	return	
  2611   01FB32  EF40  F0F7         	goto	display_minute17
  2612   01FB36  0012               	return	
  2613   01FB38                     check_minute18:
  2614   01FB38  0E12               	movlw	18
  2615   01FB3A  6328               	cpfseq	minute,b
  2616   01FB3C  0012               	return	
  2617   01FB3E  EF4B  F0F7         	goto	display_minute18
  2618   01FB42  0012               	return	
  2619   01FB44                     check_minute19:
  2620   01FB44  0E13               	movlw	19
  2621   01FB46  6328               	cpfseq	minute,b
  2622   01FB48  0012               	return	
  2623   01FB4A  EF56  F0F7         	goto	display_minute19
  2624   01FB4E  0012               	return	
  2625   01FB50                     check_minute20:
  2626   01FB50  0E14               	movlw	20
  2627   01FB52  6328               	cpfseq	minute,b
  2628   01FB54  0012               	return	
  2629   01FB56  EF61  F0F7         	goto	display_minute20
  2630   01FB5A  0012               	return	
  2631   01FB5C                     check_minute21:
  2632   01FB5C  0E15               	movlw	21
  2633   01FB5E  6328               	cpfseq	minute,b
  2634   01FB60  0012               	return	
  2635   01FB62  EF6C  F0F7         	goto	display_minute21
  2636   01FB66  0012               	return	
  2637   01FB68                     check_minute22:
  2638   01FB68  0E16               	movlw	22
  2639   01FB6A  6328               	cpfseq	minute,b
  2640   01FB6C  0012               	return	
  2641   01FB6E  EF77  F0F7         	goto	display_minute22
  2642   01FB72  0012               	return	
  2643   01FB74                     check_minute23:
  2644   01FB74  0E17               	movlw	23
  2645   01FB76  6328               	cpfseq	minute,b
  2646   01FB78  0012               	return	
  2647   01FB7A  EF82  F0F7         	goto	display_minute23
  2648   01FB7E  0012               	return	
  2649   01FB80                     check_minute24:
  2650   01FB80  0E18               	movlw	24
  2651   01FB82  6328               	cpfseq	minute,b
  2652   01FB84  0012               	return	
  2653   01FB86  EF8D  F0F7         	goto	display_minute24
  2654   01FB8A  0012               	return	
  2655   01FB8C                     check_minute25:
  2656   01FB8C  0E19               	movlw	25
  2657   01FB8E  6328               	cpfseq	minute,b
  2658   01FB90  0012               	return	
  2659   01FB92  EF98  F0F7         	goto	display_minute25
  2660   01FB96  0012               	return	
  2661   01FB98                     check_minute26:
  2662   01FB98  0E1A               	movlw	26
  2663   01FB9A  6328               	cpfseq	minute,b
  2664   01FB9C  0012               	return	
  2665   01FB9E  EFA3  F0F7         	goto	display_minute26
  2666   01FBA2  0012               	return	
  2667   01FBA4                     check_minute27:
  2668   01FBA4  0E1B               	movlw	27
  2669   01FBA6  6328               	cpfseq	minute,b
  2670   01FBA8  0012               	return	
  2671   01FBAA  EFAE  F0F7         	goto	display_minute27
  2672   01FBAE  0012               	return	
  2673   01FBB0                     check_minute28:
  2674   01FBB0  0E1C               	movlw	28
  2675   01FBB2  6328               	cpfseq	minute,b
  2676   01FBB4  0012               	return	
  2677   01FBB6  EFB9  F0F7         	goto	display_minute28
  2678   01FBBA  0012               	return	
  2679   01FBBC                     check_minute29:
  2680   01FBBC  0E1D               	movlw	29
  2681   01FBBE  6328               	cpfseq	minute,b
  2682   01FBC0  0012               	return	
  2683   01FBC2  EFC4  F0F7         	goto	display_minute29
  2684   01FBC6  0012               	return	
  2685   01FBC8                     check_minute30:
  2686   01FBC8  0E1E               	movlw	30
  2687   01FBCA  6328               	cpfseq	minute,b
  2688   01FBCC  0012               	return	
  2689   01FBCE  EFCF  F0F7         	goto	display_minute30
  2690   01FBD2  0012               	return	
  2691   01FBD4                     check_minute31:
  2692   01FBD4  0E1F               	movlw	31
  2693   01FBD6  6328               	cpfseq	minute,b
  2694   01FBD8  0012               	return	
  2695   01FBDA  EFDA  F0F7         	goto	display_minute31
  2696   01FBDE  0012               	return	
  2697   01FBE0                     check_minute32:
  2698   01FBE0  0E20               	movlw	32
  2699   01FBE2  6328               	cpfseq	minute,b
  2700   01FBE4  0012               	return	
  2701   01FBE6  EFE5  F0F7         	goto	display_minute32
  2702   01FBEA  0012               	return	
  2703   01FBEC                     check_minute33:
  2704   01FBEC  0E21               	movlw	33
  2705   01FBEE  6328               	cpfseq	minute,b
  2706   01FBF0  0012               	return	
  2707   01FBF2  EFF0  F0F7         	goto	display_minute33
  2708   01FBF6  0012               	return	
  2709   01FBF8                     check_minute34:
  2710   01FBF8  0E22               	movlw	34
  2711   01FBFA  6328               	cpfseq	minute,b
  2712   01FBFC  0012               	return	
  2713   01FBFE  EFFB  F0F7         	goto	display_minute34
  2714   01FC02  0012               	return	
  2715   01FC04                     check_minute35:
  2716   01FC04  0E23               	movlw	35
  2717   01FC06  6328               	cpfseq	minute,b
  2718   01FC08  0012               	return	
  2719   01FC0A  EF06  F0F8         	goto	display_minute35
  2720   01FC0E  0012               	return	
  2721   01FC10                     check_minute36:
  2722   01FC10  0E24               	movlw	36
  2723   01FC12  6328               	cpfseq	minute,b
  2724   01FC14  0012               	return	
  2725   01FC16  EF11  F0F8         	goto	display_minute36
  2726   01FC1A  0012               	return	
  2727   01FC1C                     check_minute37:
  2728   01FC1C  0E25               	movlw	37
  2729   01FC1E  6328               	cpfseq	minute,b
  2730   01FC20  0012               	return	
  2731   01FC22  EF1C  F0F8         	goto	display_minute37
  2732   01FC26  0012               	return	
  2733   01FC28                     check_minute38:
  2734   01FC28  0E26               	movlw	38
  2735   01FC2A  6328               	cpfseq	minute,b
  2736   01FC2C  0012               	return	
  2737   01FC2E  EF27  F0F8         	goto	display_minute38
  2738   01FC32  0012               	return	
  2739   01FC34                     check_minute39:
  2740   01FC34  0E27               	movlw	39
  2741   01FC36  6328               	cpfseq	minute,b
  2742   01FC38  0012               	return	
  2743   01FC3A  EF32  F0F8         	goto	display_minute39
  2744   01FC3E  0012               	return	
  2745   01FC40                     check_minute40:
  2746   01FC40  0E28               	movlw	40
  2747   01FC42  6328               	cpfseq	minute,b
  2748   01FC44  0012               	return	
  2749   01FC46  EF3D  F0F8         	goto	display_minute40
  2750   01FC4A  0012               	return	
  2751   01FC4C                     check_minute41:
  2752   01FC4C  0E29               	movlw	41
  2753   01FC4E  6328               	cpfseq	minute,b
  2754   01FC50  0012               	return	
  2755   01FC52  EF48  F0F8         	goto	display_minute41
  2756   01FC56  0012               	return	
  2757   01FC58                     check_minute42:
  2758   01FC58  0E2A               	movlw	42
  2759   01FC5A  6328               	cpfseq	minute,b
  2760   01FC5C  0012               	return	
  2761   01FC5E  EF53  F0F8         	goto	display_minute42
  2762   01FC62  0012               	return	
  2763   01FC64                     check_minute43:
  2764   01FC64  0E2B               	movlw	43
  2765   01FC66  6328               	cpfseq	minute,b
  2766   01FC68  0012               	return	
  2767   01FC6A  EF5E  F0F8         	goto	display_minute43
  2768   01FC6E  0012               	return	
  2769   01FC70                     check_minute44:
  2770   01FC70  0E2C               	movlw	44
  2771   01FC72  6328               	cpfseq	minute,b
  2772   01FC74  0012               	return	
  2773   01FC76  EF69  F0F8         	goto	display_minute44
  2774   01FC7A  0012               	return	
  2775   01FC7C                     check_minute45:
  2776   01FC7C  0E2D               	movlw	45
  2777   01FC7E  6328               	cpfseq	minute,b
  2778   01FC80  0012               	return	
  2779   01FC82  EF74  F0F8         	goto	display_minute45
  2780   01FC86  0012               	return	
  2781   01FC88                     check_minute46:
  2782   01FC88  0E2E               	movlw	46
  2783   01FC8A  6328               	cpfseq	minute,b
  2784   01FC8C  0012               	return	
  2785   01FC8E  EF7F  F0F8         	goto	display_minute46
  2786   01FC92  0012               	return	
  2787   01FC94                     check_minute47:
  2788   01FC94  0E2F               	movlw	47
  2789   01FC96  6328               	cpfseq	minute,b
  2790   01FC98  0012               	return	
  2791   01FC9A  EF8A  F0F8         	goto	display_minute47
  2792   01FC9E  0012               	return	
  2793   01FCA0                     check_minute48:
  2794   01FCA0  0E30               	movlw	48
  2795   01FCA2  6328               	cpfseq	minute,b
  2796   01FCA4  0012               	return	
  2797   01FCA6  EF95  F0F8         	goto	display_minute48
  2798   01FCAA  0012               	return	
  2799   01FCAC                     check_minute49:
  2800   01FCAC  0E31               	movlw	49
  2801   01FCAE  6328               	cpfseq	minute,b
  2802   01FCB0  0012               	return	
  2803   01FCB2  EFA0  F0F8         	goto	display_minute49
  2804   01FCB6  0012               	return	
  2805   01FCB8                     check_minute50:
  2806   01FCB8  0E32               	movlw	50
  2807   01FCBA  6328               	cpfseq	minute,b
  2808   01FCBC  0012               	return	
  2809   01FCBE  EFAB  F0F8         	goto	display_minute50
  2810   01FCC2  0012               	return	
  2811   01FCC4                     check_minute51:
  2812   01FCC4  0E33               	movlw	51
  2813   01FCC6  6328               	cpfseq	minute,b
  2814   01FCC8  0012               	return	
  2815   01FCCA  EFB6  F0F8         	goto	display_minute51
  2816   01FCCE  0012               	return	
  2817   01FCD0                     check_minute52:
  2818   01FCD0  0E34               	movlw	52
  2819   01FCD2  6328               	cpfseq	minute,b
  2820   01FCD4  0012               	return	
  2821   01FCD6  EFC1  F0F8         	goto	display_minute52
  2822   01FCDA  0012               	return	
  2823   01FCDC                     check_minute53:
  2824   01FCDC  0E35               	movlw	53
  2825   01FCDE  6328               	cpfseq	minute,b
  2826   01FCE0  0012               	return	
  2827   01FCE2  EFCC  F0F8         	goto	display_minute53
  2828   01FCE6  0012               	return	
  2829   01FCE8                     check_minute54:
  2830   01FCE8  0E36               	movlw	54
  2831   01FCEA  6328               	cpfseq	minute,b
  2832   01FCEC  0012               	return	
  2833   01FCEE  EFD7  F0F8         	goto	display_minute54
  2834   01FCF2  0012               	return	
  2835   01FCF4                     check_minute55:
  2836   01FCF4  0E37               	movlw	55
  2837   01FCF6  6328               	cpfseq	minute,b
  2838   01FCF8  0012               	return	
  2839   01FCFA  EFE2  F0F8         	goto	display_minute55
  2840   01FCFE  0012               	return	
  2841   01FD00                     check_minute56:
  2842   01FD00  0E38               	movlw	56
  2843   01FD02  6328               	cpfseq	minute,b
  2844   01FD04  0012               	return	
  2845   01FD06  EFED  F0F8         	goto	display_minute56
  2846   01FD0A  0012               	return	
  2847   01FD0C                     check_minute57:
  2848   01FD0C  0E39               	movlw	57
  2849   01FD0E  6328               	cpfseq	minute,b
  2850   01FD10  0012               	return	
  2851   01FD12  EFF8  F0F8         	goto	display_minute57
  2852   01FD16  0012               	return	
  2853   01FD18                     check_minute58:
  2854   01FD18  0E3A               	movlw	58
  2855   01FD1A  6328               	cpfseq	minute,b
  2856   01FD1C  0012               	return	
  2857   01FD1E  EF03  F0F9         	goto	display_minute58
  2858   01FD22  0012               	return	
  2859   01FD24                     check_minute59:
  2860   01FD24  0E3B               	movlw	59
  2861   01FD26  6328               	cpfseq	minute,b
  2862   01FD28  0012               	return	
  2863   01FD2A  EF0E  F0F9         	goto	display_minute59
  2864   01FD2E  0012               	return	
  2865   01FD30                     check_hour0:
  2866   01FD30  0E00               	movlw	0
  2867   01FD32  6329               	cpfseq	hour,b
  2868   01FD34  0012               	return	
  2869   01FD36  EF19  F0F9         	goto	display_hour0
  2870   01FD3A  0012               	return	
  2871   01FD3C                     check_hour1:
  2872   01FD3C  0E01               	movlw	1
  2873   01FD3E  6329               	cpfseq	hour,b
  2874   01FD40  0012               	return	
  2875   01FD42  EF24  F0F9         	goto	display_hour1
  2876   01FD46  0012               	return	
  2877   01FD48                     check_hour2:
  2878   01FD48  0E02               	movlw	2
  2879   01FD4A  6329               	cpfseq	hour,b
  2880   01FD4C  0012               	return	
  2881   01FD4E  EF2F  F0F9         	goto	display_hour2
  2882   01FD52  0012               	return	
  2883   01FD54                     check_hour3:
  2884   01FD54  0E03               	movlw	3
  2885   01FD56  6329               	cpfseq	hour,b
  2886   01FD58  0012               	return	
  2887   01FD5A  EF3A  F0F9         	goto	display_hour3
  2888   01FD5E  0012               	return	
  2889   01FD60                     check_hour4:
  2890   01FD60  0E04               	movlw	4
  2891   01FD62  6329               	cpfseq	hour,b
  2892   01FD64  0012               	return	
  2893   01FD66  EF45  F0F9         	goto	display_hour4
  2894   01FD6A  0012               	return	
  2895   01FD6C                     check_hour5:
  2896   01FD6C  0E05               	movlw	5
  2897   01FD6E  6329               	cpfseq	hour,b
  2898   01FD70  0012               	return	
  2899   01FD72  EF50  F0F9         	goto	display_hour5
  2900   01FD76  0012               	return	
  2901   01FD78                     check_hour6:
  2902   01FD78  0E06               	movlw	6
  2903   01FD7A  6329               	cpfseq	hour,b
  2904   01FD7C  0012               	return	
  2905   01FD7E  EF5B  F0F9         	goto	display_hour6
  2906   01FD82  0012               	return	
  2907   01FD84                     check_hour7:
  2908   01FD84  0E07               	movlw	7
  2909   01FD86  6329               	cpfseq	hour,b
  2910   01FD88  0012               	return	
  2911   01FD8A  EF66  F0F9         	goto	display_hour7
  2912   01FD8E  0012               	return	
  2913   01FD90                     check_hour8:
  2914   01FD90  0E08               	movlw	8
  2915   01FD92  6329               	cpfseq	hour,b
  2916   01FD94  0012               	return	
  2917   01FD96  EF71  F0F9         	goto	display_hour8
  2918   01FD9A  0012               	return	
  2919   01FD9C                     check_hour9:
  2920   01FD9C  0E09               	movlw	9
  2921   01FD9E  6329               	cpfseq	hour,b
  2922   01FDA0  0012               	return	
  2923   01FDA2  EF7C  F0F9         	goto	display_hour9
  2924   01FDA6  0012               	return	
  2925   01FDA8                     check_hour10:
  2926   01FDA8  0E0A               	movlw	10
  2927   01FDAA  6329               	cpfseq	hour,b
  2928   01FDAC  0012               	return	
  2929   01FDAE  EF87  F0F9         	goto	display_hour10
  2930   01FDB2  0012               	return	
  2931   01FDB4                     check_hour11:
  2932   01FDB4  0E0B               	movlw	11
  2933   01FDB6  6329               	cpfseq	hour,b
  2934   01FDB8  0012               	return	
  2935   01FDBA  EF92  F0F9         	goto	display_hour11
  2936   01FDBE  0012               	return	
  2937   01FDC0                     check_hour12:
  2938   01FDC0  0E0C               	movlw	12
  2939   01FDC2  6329               	cpfseq	hour,b
  2940   01FDC4  0012               	return	
  2941   01FDC6  EF9D  F0F9         	goto	display_hour12
  2942   01FDCA  0012               	return	
  2943   01FDCC                     check_hour13:
  2944   01FDCC  0E0D               	movlw	13
  2945   01FDCE  6329               	cpfseq	hour,b
  2946   01FDD0  0012               	return	
  2947   01FDD2  EFA8  F0F9         	goto	display_hour13
  2948   01FDD6  0012               	return	
  2949   01FDD8                     check_hour14:
  2950   01FDD8  0E0E               	movlw	14
  2951   01FDDA  6329               	cpfseq	hour,b
  2952   01FDDC  0012               	return	
  2953   01FDDE  EFB3  F0F9         	goto	display_hour14
  2954   01FDE2  0012               	return	
  2955   01FDE4                     check_hour15:
  2956   01FDE4  0E0F               	movlw	15
  2957   01FDE6  6329               	cpfseq	hour,b
  2958   01FDE8  0012               	return	
  2959   01FDEA  EFBE  F0F9         	goto	display_hour15
  2960   01FDEE  0012               	return	
  2961   01FDF0                     check_hour16:
  2962   01FDF0  0E10               	movlw	16
  2963   01FDF2  6329               	cpfseq	hour,b
  2964   01FDF4  0012               	return	
  2965   01FDF6  EFC9  F0F9         	goto	display_hour16
  2966   01FDFA  0012               	return	
  2967   01FDFC                     check_hour17:
  2968   01FDFC  0E11               	movlw	17
  2969   01FDFE  6329               	cpfseq	hour,b
  2970   01FE00  0012               	return	
  2971   01FE02  EFD4  F0F9         	goto	display_hour17
  2972   01FE06  0012               	return	
  2973   01FE08                     check_hour18:
  2974   01FE08  0E12               	movlw	18
  2975   01FE0A  6329               	cpfseq	hour,b
  2976   01FE0C  0012               	return	
  2977   01FE0E  EFDF  F0F9         	goto	display_hour18
  2978   01FE12  0012               	return	
  2979   01FE14                     check_hour19:
  2980   01FE14  0E13               	movlw	19
  2981   01FE16  6329               	cpfseq	hour,b
  2982   01FE18  0012               	return	
  2983   01FE1A  EFEA  F0F9         	goto	display_hour19
  2984   01FE1E  0012               	return	
  2985   01FE20                     check_hour20:
  2986   01FE20  0E14               	movlw	20
  2987   01FE22  6329               	cpfseq	hour,b
  2988   01FE24  0012               	return	
  2989   01FE26  EFF5  F0F9         	goto	display_hour20
  2990   01FE2A  0012               	return	
  2991   01FE2C                     check_hour21:
  2992   01FE2C  0E15               	movlw	21
  2993   01FE2E  6329               	cpfseq	hour,b
  2994   01FE30  0012               	return	
  2995   01FE32  EF00  F0FA         	goto	display_hour21
  2996   01FE36  0012               	return	
  2997   01FE38                     check_hour22:
  2998   01FE38  0E16               	movlw	22
  2999   01FE3A  6329               	cpfseq	hour,b
  3000   01FE3C  0012               	return	
  3001   01FE3E  EF0B  F0FA         	goto	display_hour22
  3002   01FE42  0012               	return	
  3003   01FE44                     check_hour23:
  3004   01FE44  0E17               	movlw	23
  3005   01FE46  6329               	cpfseq	hour,b
  3006   01FE48  0012               	return	
  3007   01FE4A  EF16  F0FA         	goto	display_hour23
  3008   01FE4E  0012               	return	
  3009   01FE50                     check_hour24:
  3010   01FE50  0E18               	movlw	24
  3011   01FE52  6329               	cpfseq	hour,b
  3012   01FE54  0012               	return	
  3013   01FE56  EF21  F0FA         	goto	display_hour24
  3014   01FE5A  0012               	return	
  3015   01FE5C                     check_hour25:
  3016   01FE5C  0E19               	movlw	25
  3017   01FE5E  6329               	cpfseq	hour,b
  3018   01FE60  0012               	return	
  3019   01FE62  EF2C  F0FA         	goto	display_hour25
  3020   01FE66  0012               	return	
  3021   01FE68                     check_hour26:
  3022   01FE68  0E1A               	movlw	26
  3023   01FE6A  6329               	cpfseq	hour,b
  3024   01FE6C  0012               	return	
  3025   01FE6E  EF37  F0FA         	goto	display_hour26
  3026   01FE72  0012               	return	
  3027   01FE74                     check_hour27:
  3028   01FE74  0E1B               	movlw	27
  3029   01FE76  6329               	cpfseq	hour,b
  3030   01FE78  0012               	return	
  3031   01FE7A  EF42  F0FA         	goto	display_hour27
  3032   01FE7E  0012               	return	
  3033   01FE80                     check_hour28:
  3034   01FE80  0E1C               	movlw	28
  3035   01FE82  6329               	cpfseq	hour,b
  3036   01FE84  0012               	return	
  3037   01FE86  EF4D  F0FA         	goto	display_hour28
  3038   01FE8A  0012               	return	
  3039   01FE8C                     check_hour29:
  3040   01FE8C  0E1D               	movlw	29
  3041   01FE8E  6329               	cpfseq	hour,b
  3042   01FE90  0012               	return	
  3043   01FE92  EF58  F0FA         	goto	display_hour29
  3044   01FE96  0012               	return	
  3045   01FE98                     check_hour30:
  3046   01FE98  0E1E               	movlw	30
  3047   01FE9A  6329               	cpfseq	hour,b
  3048   01FE9C  0012               	return	
  3049   01FE9E  EF63  F0FA         	goto	display_hour30
  3050   01FEA2  0012               	return	
  3051   01FEA4                     check_hour31:
  3052   01FEA4  0E1F               	movlw	31
  3053   01FEA6  6329               	cpfseq	hour,b
  3054   01FEA8  0012               	return	
  3055   01FEAA  EF6E  F0FA         	goto	display_hour31
  3056   01FEAE  0012               	return	
  3057   01FEB0                     check_hour32:
  3058   01FEB0  0E20               	movlw	32
  3059   01FEB2  6329               	cpfseq	hour,b
  3060   01FEB4  0012               	return	
  3061   01FEB6  EF79  F0FA         	goto	display_hour32
  3062   01FEBA  0012               	return	
  3063   01FEBC                     check_hour33:
  3064   01FEBC  0E21               	movlw	33
  3065   01FEBE  6329               	cpfseq	hour,b
  3066   01FEC0  0012               	return	
  3067   01FEC2  EF84  F0FA         	goto	display_hour33
  3068   01FEC6  0012               	return	
  3069   01FEC8                     check_hour34:
  3070   01FEC8  0E22               	movlw	34
  3071   01FECA  6329               	cpfseq	hour,b
  3072   01FECC  0012               	return	
  3073   01FECE  EF8F  F0FA         	goto	display_hour34
  3074   01FED2  0012               	return	
  3075   01FED4                     check_hour35:
  3076   01FED4  0E23               	movlw	35
  3077   01FED6  6329               	cpfseq	hour,b
  3078   01FED8  0012               	return	
  3079   01FEDA  EF9A  F0FA         	goto	display_hour35
  3080   01FEDE  0012               	return	
  3081   01FEE0                     check_hour36:
  3082   01FEE0  0E24               	movlw	36
  3083   01FEE2  6329               	cpfseq	hour,b
  3084   01FEE4  0012               	return	
  3085   01FEE6  EFA5  F0FA         	goto	display_hour36
  3086   01FEEA  0012               	return	
  3087   01FEEC                     check_hour37:
  3088   01FEEC  0E25               	movlw	37
  3089   01FEEE  6329               	cpfseq	hour,b
  3090   01FEF0  0012               	return	
  3091   01FEF2  EFB0  F0FA         	goto	display_hour37
  3092   01FEF6  0012               	return	
  3093   01FEF8                     check_hour38:
  3094   01FEF8  0E26               	movlw	38
  3095   01FEFA  6329               	cpfseq	hour,b
  3096   01FEFC  0012               	return	
  3097   01FEFE  EFBB  F0FA         	goto	display_hour38
  3098   01FF02  0012               	return	
  3099   01FF04                     check_hour39:
  3100   01FF04  0E27               	movlw	39
  3101   01FF06  6329               	cpfseq	hour,b
  3102   01FF08  0012               	return	
  3103   01FF0A  EFC6  F0FA         	goto	display_hour39
  3104   01FF0E  0012               	return	
  3105   01FF10                     check_hour40:
  3106   01FF10  0E28               	movlw	40
  3107   01FF12  6329               	cpfseq	hour,b
  3108   01FF14  0012               	return	
  3109   01FF16  EFD1  F0FA         	goto	display_hour40
  3110   01FF1A  0012               	return	
  3111   01FF1C                     check_hour41:
  3112   01FF1C  0E29               	movlw	41
  3113   01FF1E  6329               	cpfseq	hour,b
  3114   01FF20  0012               	return	
  3115   01FF22  EFDC  F0FA         	goto	display_hour41
  3116   01FF26  0012               	return	
  3117   01FF28                     check_hour42:
  3118   01FF28  0E2A               	movlw	42
  3119   01FF2A  6329               	cpfseq	hour,b
  3120   01FF2C  0012               	return	
  3121   01FF2E  EFE7  F0FA         	goto	display_hour42
  3122   01FF32  0012               	return	
  3123   01FF34                     check_hour43:
  3124   01FF34  0E2B               	movlw	43
  3125   01FF36  6329               	cpfseq	hour,b
  3126   01FF38  0012               	return	
  3127   01FF3A  EFF2  F0FA         	goto	display_hour43
  3128   01FF3E  0012               	return	
  3129   01FF40                     check_hour44:
  3130   01FF40  0E2C               	movlw	44
  3131   01FF42  6329               	cpfseq	hour,b
  3132   01FF44  0012               	return	
  3133   01FF46  EFFD  F0FA         	goto	display_hour44
  3134   01FF4A  0012               	return	
  3135   01FF4C                     check_hour45:
  3136   01FF4C  0E2D               	movlw	45
  3137   01FF4E  6329               	cpfseq	hour,b
  3138   01FF50  0012               	return	
  3139   01FF52  EF08  F0FB         	goto	display_hour45
  3140   01FF56  0012               	return	
  3141   01FF58                     check_hour46:
  3142   01FF58  0E2E               	movlw	46
  3143   01FF5A  6329               	cpfseq	hour,b
  3144   01FF5C  0012               	return	
  3145   01FF5E  EF13  F0FB         	goto	display_hour46
  3146   01FF62  0012               	return	
  3147   01FF64                     check_hour47:
  3148   01FF64  0E2F               	movlw	47
  3149   01FF66  6329               	cpfseq	hour,b
  3150   01FF68  0012               	return	
  3151   01FF6A  EF1E  F0FB         	goto	display_hour47
  3152   01FF6E  0012               	return	
  3153   01FF70                     check_hour48:
  3154   01FF70  0E30               	movlw	48
  3155   01FF72  6329               	cpfseq	hour,b
  3156   01FF74  0012               	return	
  3157   01FF76  EF29  F0FB         	goto	display_hour48
  3158   01FF7A  0012               	return	
  3159   01FF7C                     check_hour49:
  3160   01FF7C  0E31               	movlw	49
  3161   01FF7E  6329               	cpfseq	hour,b
  3162   01FF80  0012               	return	
  3163   01FF82  EF34  F0FB         	goto	display_hour49
  3164   01FF86  0012               	return	
  3165   01FF88                     check_hour50:
  3166   01FF88  0E32               	movlw	50
  3167   01FF8A  6329               	cpfseq	hour,b
  3168   01FF8C  0012               	return	
  3169   01FF8E  EF3F  F0FB         	goto	display_hour50
  3170   01FF92  0012               	return	
  3171   01FF94                     check_hour51:
  3172   01FF94  0E33               	movlw	51
  3173   01FF96  6329               	cpfseq	hour,b
  3174   01FF98  0012               	return	
  3175   01FF9A  EF4A  F0FB         	goto	display_hour51
  3176   01FF9E  0012               	return	
  3177   01FFA0                     check_hour52:
  3178   01FFA0  0E34               	movlw	52
  3179   01FFA2  6329               	cpfseq	hour,b
  3180   01FFA4  0012               	return	
  3181   01FFA6  EF55  F0FB         	goto	display_hour52
  3182   01FFAA  0012               	return	
  3183   01FFAC                     check_hour53:
  3184   01FFAC  0E35               	movlw	53
  3185   01FFAE  6329               	cpfseq	hour,b
  3186   01FFB0  0012               	return	
  3187   01FFB2  EF60  F0FB         	goto	display_hour53
  3188   01FFB6  0012               	return	
  3189   01FFB8                     check_hour54:
  3190   01FFB8  0E36               	movlw	54
  3191   01FFBA  6329               	cpfseq	hour,b
  3192   01FFBC  0012               	return	
  3193   01FFBE  EF6B  F0FB         	goto	display_hour54
  3194   01FFC2  0012               	return	
  3195   01FFC4                     check_hour55:
  3196   01FFC4  0E37               	movlw	55
  3197   01FFC6  6329               	cpfseq	hour,b
  3198   01FFC8  0012               	return	
  3199   01FFCA  EF76  F0FB         	goto	display_hour55
  3200   01FFCE  0012               	return	
  3201   01FFD0                     check_hour56:
  3202   01FFD0  0E38               	movlw	56
  3203   01FFD2  6329               	cpfseq	hour,b
  3204   01FFD4  0012               	return	
  3205   01FFD6  EF81  F0FB         	goto	display_hour56
  3206   01FFDA  0012               	return	
  3207   01FFDC                     check_hour57:
  3208   01FFDC  0E39               	movlw	57
  3209   01FFDE  6329               	cpfseq	hour,b
  3210   01FFE0  0012               	return	
  3211   01FFE2  EF8C  F0FB         	goto	display_hour57
  3212   01FFE6  0012               	return	
  3213   01FFE8                     check_hour58:
  3214   01FFE8  0E3A               	movlw	58
  3215   01FFEA  6329               	cpfseq	hour,b
  3216   01FFEC  0012               	return	
  3217   01FFEE  EF97  F0FB         	goto	display_hour58
  3218   01FFF2  0012               	return	
  3219   01FFF4                     check_hour59:
  3220   01FFF4  0E3B               	movlw	59
  3221   01FFF6  6329               	cpfseq	hour,b
  3222   01FFF8  0012               	return	
  3223   01FFFA  EFA2  F0FB         	goto	display_hour59
  3224   01FFFE  0012               	return	
  3225                           tosu	equ	0xFFF
  3226                           tosh	equ	0xFFE
  3227                           tosl	equ	0xFFD
  3228                           stkptr	equ	0xFFC
  3229                           pclatu	equ	0xFFB
  3230                           pclath	equ	0xFFA
  3231                           pcl	equ	0xFF9
  3232                           tblptru	equ	0xFF8
  3233                           tblptrh	equ	0xFF7
  3234                           tblptrl	equ	0xFF6
  3235                           tablat	equ	0xFF5
  3236                           prodh	equ	0xFF4
  3237                           prodl	equ	0xFF3
  3238                           indf0	equ	0xFEF
  3239                           postinc0	equ	0xFEE
  3240                           postdec0	equ	0xFED
  3241                           preinc0	equ	0xFEC
  3242                           plusw0	equ	0xFEB
  3243                           fsr0h	equ	0xFEA
  3244                           fsr0l	equ	0xFE9
  3245                           wreg	equ	0xFE8
  3246                           indf1	equ	0xFE7
  3247                           postinc1	equ	0xFE6
  3248                           postdec1	equ	0xFE5
  3249                           preinc1	equ	0xFE4
  3250                           plusw1	equ	0xFE3
  3251                           fsr1h	equ	0xFE2
  3252                           fsr1l	equ	0xFE1
  3253                           bsr	equ	0xFE0
  3254                           indf2	equ	0xFDF
  3255                           postinc2	equ	0xFDE
  3256                           postdec2	equ	0xFDD
  3257                           preinc2	equ	0xFDC
  3258                           plusw2	equ	0xFDB
  3259                           fsr2h	equ	0xFDA
  3260                           fsr2l	equ	0xFD9
  3261                           status	equ	0xFD8


Microchip Technology PIC18 Macro Assembler V2.40 build 20220703182018 
Symbol Table                                                                                               Thu Dec 15 12:10:38 2022

                            hour 0029                              loop F75A                             PORTC 000F82  
                           PORTD 000F83                             PORTG 000F86                             PORTH 000F87  
                           hand0 CEAE                             hand1 CF0A                             hand2 CF66  
                           hand3 CFC2                             hand4 D01E                             hand5 D07A  
                           hand6 D0D6                             hand7 D132                             hand8 D18E  
                           hand9 D1EA                             delay C55E                            EECON1 000F7F  
                          TABLAT 000FF5                            hand10 D246                            hand11 D2A2  
                          hand20 D5DE                            hand12 D2FE                            hand21 D63A  
                          hand13 D35A                            hand30 D976                            hand22 D696  
                          hand14 D3B6                            hand31 D9D2                            hand23 D6F2  
                          hand15 D412                            hand40 DD0E                            hand32 DA2E  
                          hand24 D74E                            hand16 D46E                            hand41 DD6A  
                          hand33 DA8A                            hand25 D7AA                            hand17 D4CA  
                          hand50 E0A6                            hand42 DDC6                            hand34 DAE6  
                          hand26 D806                            hand18 D526                            hand51 E102  
                          hand43 DE22                            hand35 DB42                            hand27 D862  
                          hand19 D582                            hand52 E15E                            hand44 DE7E  
                          hand36 DB9E                            hand28 D8BE                            hand53 E1BA  
                          hand45 DEDA                            hand37 DBFA                            hand29 D91A  
                          hand54 E216                            hand46 DF36                            hand38 DC56  
                          hand55 E272                            hand47 DF92                            hand39 DCB2  
                          hand56 E2CE                            hand48 DFEE                            hand57 E32A  
                          hand49 E04A                            hand58 E386                            hand59 E3E2  
                          minute 0028                            second 0027                     display_hour0 F232  
                   display_hour1 F248                     display_hour2 F25E                     display_hour3 F274  
                   display_hour4 F28A                     display_hour5 F2A0                     display_hour6 F2B6  
                   display_hour7 F2CC                     display_hour8 F2E2                     display_hour9 F2F8  
                         TBLPTRH 000FF7                           TBLPTRL 000FF6                           TBLPTRU 000FF8  
                 counter_display 0036                           isa$std 000001                           display E45C  
                  display_hour10 F30E                    display_hour11 F324                    display_hour20 F3EA  
                  display_hour12 F33A                    display_hour21 F400                    display_hour13 F350  
                  display_hour30 F4C6                    display_hour22 F416                    display_hour14 F366  
                  display_hour31 F4DC                    display_hour23 F42C                    display_hour15 F37C  
                  display_hour40 F5A2                    display_hour32 F4F2                    display_hour24 F442  
                  display_hour16 F392                    display_hour41 F5B8                    display_hour33 F508  
                  display_hour25 F458                    display_hour17 F3A8                    display_hour50 F67E  
                  display_hour42 F5CE                    display_hour34 F51E                    display_hour26 F46E  
                  display_hour18 F3BE                    display_hour51 F694                    display_hour43 F5E4  
                  display_hour35 F534                    display_hour27 F484                    display_hour19 F3D4  
                  display_hour52 F6AA                    display_hour44 F5FA                    display_hour36 F54A  
                  display_hour28 F49A                    display_hour53 F6C0                    display_hour45 F610  
                  display_hour37 F560                    display_hour29 F4B0                    display_hour54 F6D6  
                  display_hour46 F626                    display_hour38 F576                    display_hour55 F6EC  
                  display_hour47 F63C                    display_hour39 F58C                    display_hour56 F702  
                  display_hour48 F652                    display_hour57 F718                    display_hour49 F668  
                  display_hour58 F72E                    display_hour59 F744                           style_1 E7B8  
                         style_2 E7CA                    check_minute10 FAD8                    check_minute11 FAE4  
                  check_minute20 FB50                    check_minute12 FAF0                    check_minute21 FB5C  
                  check_minute13 FAFC                    check_minute30 FBC8                    check_minute22 FB68  
                  check_minute14 FB08                    check_minute31 FBD4                    check_minute23 FB74  
                  check_minute15 FB14                    check_minute40 FC40                    check_minute32 FBE0  
                  check_minute24 FB80                    check_minute16 FB20                    check_minute41 FC4C  
                  check_minute33 FBEC                    check_minute25 FB8C                    check_minute17 FB2C  
                  check_minute50 FCB8                    check_minute42 FC58                    check_minute34 FBF8  
                  check_minute26 FB98                    check_minute18 FB38                    check_minute51 FCC4  
                  check_minute43 FC64                    check_minute35 FC04                    check_minute27 FBA4  
                  check_minute19 FB44                    check_minute52 FCD0                    check_minute44 FC70  
                  check_minute36 FC10                    check_minute28 FBB0                    check_minute53 FCDC  
                  check_minute45 FC7C                    check_minute37 FC1C                    check_minute29 FBBC  
                  check_minute54 FCE8                    check_minute46 FC88                    check_minute38 FC28  
                  check_second10 F808                    check_minute55 FCF4                    check_minute47 FC94  
                  check_minute39 FC34                    check_second11 F814                    check_minute56 FD00  
                  check_minute48 FCA0                    check_second20 F880                    check_second12 F820  
                  check_minute57 FD0C                    check_minute49 FCAC                    check_second21 F88C  
                  check_second13 F82C                    check_minute58 FD18                    check_second30 F8F8  
                  check_second22 F898                    check_second14 F838                    check_minute59 FD24  
                  check_second31 F904                    check_second23 F8A4                    check_second15 F844  
                  check_second40 F970                    check_second32 F910                    check_second24 F8B0  
                  check_second16 F850                    check_second41 F97C                    check_second33 F91C  
                  check_second25 F8BC                    check_second17 F85C                    check_second50 F9E8  
                  check_second42 F988                    check_second34 F928                    check_second26 F8C8  
                  check_second18 F868                    check_second51 F9F4                    check_second43 F994  
                  check_second35 F934                    check_second27 F8D4                    check_second19 F874  
                  check_second52 FA00                    check_second44 F9A0                    check_second36 F940  
                  check_second28 F8E0                    check_second53 FA0C                    check_second45 F9AC  
                  check_second37 F94C                    check_second29 F8EC                    check_second54 FA18  
                  check_second46 F9B8                    check_second38 F958                    check_second55 FA24  
                  check_second47 F9C4                    check_second39 F964                    check_second56 FA30  
                  check_second48 F9D0                    check_second57 FA3C                    check_second49 F9DC  
                  check_second58 FA48                    check_second59 FA54                       check_hour0 FD30  
                     check_hour1 FD3C                       check_hour2 FD48                       check_hour3 FD54  
                     check_hour4 FD60                       check_hour5 FD6C                       check_hour6 FD78  
                     check_hour7 FD84                       check_hour8 FD90                       check_hour9 FD9C  
                     check_style E494                       alarm_table CDB0                          circle_1 E78C  
                        circle_2 E7A2                          len_hour 0013                   display_minute0 ED0A  
                 display_minute1 ED20                   display_minute2 ED36                   display_minute3 ED4C  
                 display_minute4 ED62                   display_minute5 ED78                   display_minute6 ED8E  
                 display_second0 E7E2                   display_minute7 EDA4                   display_second1 E7F8  
                 display_minute8 EDBA                   display_second2 E80E                   display_minute9 EDD0  
                 display_second3 E824                   display_second4 E83A                   display_second5 E850  
                 display_second6 E866                   display_second7 E87C                   display_second8 E892  
                 display_second9 E8A8                       len_style_1 0010                       len_style_2 0011  
                     len_style_3 0012                     check_minute0 FA60                     check_minute1 FA6C  
                   check_minute2 FA78                     check_minute3 FA84                     check_minute4 FA90  
                   check_minute5 FA9C                     check_minute6 FAA8                     check_second0 F790  
                   check_minute7 FAB4                     check_second1 F79C                     check_minute8 FAC0  
                   check_second2 F7A8                     check_minute9 FACC                     check_second3 F7B4  
                   check_second4 F7C0                     check_second5 F7CC                     check_second6 F7D8  
                   check_second7 F7E4                     check_second8 F7F0                     check_second9 F7FC  
                   check_style_1 E49E                     check_style_2 E4AA                        check_hour E69A  
                    style_number 0016                        len_minute 0014                        len_second 0015  
                     sound_alarm E47E                      check_hour10 FDA8                      check_hour11 FDB4  
                    check_hour20 FE20                      check_hour12 FDC0                      check_hour21 FE2C  
                    check_hour13 FDCC                      check_hour30 FE98                      check_hour22 FE38  
                    check_hour14 FDD8                      check_hour31 FEA4                      check_hour23 FE44  
                    check_hour15 FDE4                      check_hour40 FF10                      check_hour32 FEB0  
                    check_hour24 FE50                      check_hour16 FDF0                      check_hour41 FF1C  
                    check_hour33 FEBC                      check_hour25 FE5C                      check_hour17 FDFC  
                    check_hour50 FF88                      check_hour42 FF28                      check_hour34 FEC8  
                    check_hour26 FE68                      check_hour18 FE08                      check_hour51 FF94  
                    check_hour43 FF34                      check_hour35 FED4                      check_hour27 FE74  
                    check_hour19 FE14                      check_hour52 FFA0                      check_hour44 FF40  
                    check_hour36 FEE0                      check_hour28 FE80                      check_hour53 FFAC  
                    check_hour45 FF4C                      check_hour37 FEEC                      check_hour29 FE8C  
                    check_hour54 FFB8                      check_hour46 FF58                      check_hour38 FEF8  
                    check_hour55 FFC4                      check_hour47 FF64                      check_hour39 FF04  
                    check_hour56 FFD0                      check_hour48 FF70                      check_hour57 FFDC  
                    check_hour49 FF7C                      check_hour58 FFE8                      check_hour59 FFF4  
                    check_minute E5A8                      check_second E4B6                        loop_alarm F786  
                      loop_delay F76E                         alarm_set 0025                         isa$xinst 000000  
                      show_alarm E47A                    clock_circle_1 CB4A                    clock_circle_2 CC48  
                display_minute10 EDE6                  display_minute11 EDFC                  display_minute20 EEC2  
                display_minute12 EE12                  display_minute21 EED8                  display_minute13 EE28  
                display_minute30 EF9E                  display_minute22 EEEE                  display_minute14 EE3E  
                display_minute31 EFB4                  display_minute23 EF04                  display_minute15 EE54  
                display_minute40 F07A                  display_minute32 EFCA                  display_minute24 EF1A  
                display_minute16 EE6A                  display_minute41 F090                  display_minute33 EFE0  
                display_minute25 EF30                  display_minute17 EE80                  display_minute50 F156  
                display_minute42 F0A6                  display_minute34 EFF6                  display_minute26 EF46  
                display_minute18 EE96                  display_minute51 F16C                  display_minute43 F0BC  
                display_minute35 F00C                  display_minute27 EF5C                  display_minute19 EEAC  
                display_minute52 F182                  display_minute44 F0D2                  display_minute36 F022  
                display_minute28 EF72                  display_minute53 F198                  display_minute45 F0E8  
                display_minute37 F038                  display_minute29 EF88                  display_minute54 F1AE  
                display_minute46 F0FE                  display_minute38 F04E                  display_second10 E8BE  
                display_minute55 F1C4                  display_minute47 F114                  display_minute39 F064  
                display_second11 E8D4                  display_minute56 F1DA                  display_minute48 F12A  
                display_second20 E99A                  display_second12 E8EA                  display_minute57 F1F0  
                display_minute49 F140                  display_second21 E9B0                  display_second13 E900  
                display_minute58 F206                  display_second30 EA76                  display_second22 E9C6  
                display_second14 E916                  display_minute59 F21C                  display_second31 EA8C  
                display_second23 E9DC                  display_second15 E92C                  display_second40 EB52  
                display_second32 EAA2                  display_second24 E9F2                  display_second16 E942  
                display_second41 EB68                  display_second33 EAB8                  display_second25 EA08  
                display_second17 E958                  display_second50 EC2E                  display_second42 EB7E  
                display_second34 EACE                  display_second26 EA1E                  display_second18 E96E  
                display_second51 EC44                  display_second43 EB94                  display_second35 EAE4  
                display_second27 EA34                  display_second19 E984                  display_second52 EC5A  
                display_second44 EBAA                  display_second36 EAFA                  display_second28 EA4A  
                display_second53 EC70                  display_second45 EBC0                  display_second37 EB10  
                display_second29 EA60                  display_second54 EC86                  display_second46 EBD6  
                display_second38 EB26                  display_second55 EC9C                  display_second47 EBEC  
                display_second39 EB3C                  display_second56 ECB2                  display_second48 EC02  
                display_second57 ECC8                  display_second49 EC18                  display_second58 ECDE  
                display_second59 ECF4                     clock_style_1 CD46                     clock_style_2 CD48  
